
comms_rev2_fin.elf:     file format elf32-littlearm

Sections:
Idx Name          Size      VMA       LMA       File off  Algn
  0 .isr_vector   000000c0  08000000  08000000  00010000  2**0
                  CONTENTS, ALLOC, LOAD, READONLY, DATA
  1 .text         000035b8  080000c0  080000c0  000100c0  2**4
                  CONTENTS, ALLOC, LOAD, READONLY, CODE
  2 .rodata       000000f4  08003678  08003678  00013678  2**2
                  CONTENTS, ALLOC, LOAD, READONLY, DATA
  3 .ARM.extab    00000000  0800376c  0800376c  0002006c  2**0
                  CONTENTS
  4 .ARM          00000008  0800376c  0800376c  0001376c  2**2
                  CONTENTS, ALLOC, LOAD, READONLY, DATA
  5 .preinit_array 00000000  08003774  08003774  0002006c  2**0
                  CONTENTS, ALLOC, LOAD, DATA
  6 .init_array   00000008  08003774  08003774  00013774  2**2
                  CONTENTS, ALLOC, LOAD, DATA
  7 .fini_array   00000008  0800377c  0800377c  0001377c  2**2
                  CONTENTS, ALLOC, LOAD, DATA
  8 .data         0000006c  20000000  08003784  00020000  2**2
                  CONTENTS, ALLOC, LOAD, DATA
  9 .bss          0000129c  2000006c  080037f0  0002006c  2**2
                  ALLOC
 10 ._user_heap_stack 00000600  20001308  080037f0  00021308  2**0
                  ALLOC
 11 .ARM.attributes 00000028  00000000  00000000  0002006c  2**0
                  CONTENTS, READONLY
 12 .comment      0000007b  00000000  00000000  00020094  2**0
                  CONTENTS, READONLY
 13 .debug_frame  000002dc  00000000  00000000  00020110  2**2
                  CONTENTS, READONLY, DEBUGGING

Disassembly of section .text:

080000c0 <__do_global_dtors_aux>:
 80000c0:	b510      	push	{r4, lr}
 80000c2:	4c06      	ldr	r4, [pc, #24]	; (80000dc <__do_global_dtors_aux+0x1c>)
 80000c4:	7823      	ldrb	r3, [r4, #0]
 80000c6:	2b00      	cmp	r3, #0
 80000c8:	d107      	bne.n	80000da <__do_global_dtors_aux+0x1a>
 80000ca:	4b05      	ldr	r3, [pc, #20]	; (80000e0 <__do_global_dtors_aux+0x20>)
 80000cc:	2b00      	cmp	r3, #0
 80000ce:	d002      	beq.n	80000d6 <__do_global_dtors_aux+0x16>
 80000d0:	4804      	ldr	r0, [pc, #16]	; (80000e4 <__do_global_dtors_aux+0x24>)
 80000d2:	e000      	b.n	80000d6 <__do_global_dtors_aux+0x16>
 80000d4:	bf00      	nop
 80000d6:	2301      	movs	r3, #1
 80000d8:	7023      	strb	r3, [r4, #0]
 80000da:	bd10      	pop	{r4, pc}
 80000dc:	2000006c 	.word	0x2000006c
 80000e0:	00000000 	.word	0x00000000
 80000e4:	08003660 	.word	0x08003660

080000e8 <frame_dummy>:
 80000e8:	4b04      	ldr	r3, [pc, #16]	; (80000fc <frame_dummy+0x14>)
 80000ea:	b510      	push	{r4, lr}
 80000ec:	2b00      	cmp	r3, #0
 80000ee:	d003      	beq.n	80000f8 <frame_dummy+0x10>
 80000f0:	4903      	ldr	r1, [pc, #12]	; (8000100 <frame_dummy+0x18>)
 80000f2:	4804      	ldr	r0, [pc, #16]	; (8000104 <frame_dummy+0x1c>)
 80000f4:	e000      	b.n	80000f8 <frame_dummy+0x10>
 80000f6:	bf00      	nop
 80000f8:	bd10      	pop	{r4, pc}
 80000fa:	46c0      	nop			; (mov r8, r8)
 80000fc:	00000000 	.word	0x00000000
 8000100:	20000070 	.word	0x20000070
 8000104:	08003660 	.word	0x08003660

08000108 <__gnu_thumb1_case_uqi>:
 8000108:	b402      	push	{r1}
 800010a:	4671      	mov	r1, lr
 800010c:	0849      	lsrs	r1, r1, #1
 800010e:	0049      	lsls	r1, r1, #1
 8000110:	5c09      	ldrb	r1, [r1, r0]
 8000112:	0049      	lsls	r1, r1, #1
 8000114:	448e      	add	lr, r1
 8000116:	bc02      	pop	{r1}
 8000118:	4770      	bx	lr
 800011a:	46c0      	nop			; (mov r8, r8)

0800011c <__udivsi3>:
 800011c:	2200      	movs	r2, #0
 800011e:	0843      	lsrs	r3, r0, #1
 8000120:	428b      	cmp	r3, r1
 8000122:	d374      	bcc.n	800020e <__udivsi3+0xf2>
 8000124:	0903      	lsrs	r3, r0, #4
 8000126:	428b      	cmp	r3, r1
 8000128:	d35f      	bcc.n	80001ea <__udivsi3+0xce>
 800012a:	0a03      	lsrs	r3, r0, #8
 800012c:	428b      	cmp	r3, r1
 800012e:	d344      	bcc.n	80001ba <__udivsi3+0x9e>
 8000130:	0b03      	lsrs	r3, r0, #12
 8000132:	428b      	cmp	r3, r1
 8000134:	d328      	bcc.n	8000188 <__udivsi3+0x6c>
 8000136:	0c03      	lsrs	r3, r0, #16
 8000138:	428b      	cmp	r3, r1
 800013a:	d30d      	bcc.n	8000158 <__udivsi3+0x3c>
 800013c:	22ff      	movs	r2, #255	; 0xff
 800013e:	0209      	lsls	r1, r1, #8
 8000140:	ba12      	rev	r2, r2
 8000142:	0c03      	lsrs	r3, r0, #16
 8000144:	428b      	cmp	r3, r1
 8000146:	d302      	bcc.n	800014e <__udivsi3+0x32>
 8000148:	1212      	asrs	r2, r2, #8
 800014a:	0209      	lsls	r1, r1, #8
 800014c:	d065      	beq.n	800021a <__udivsi3+0xfe>
 800014e:	0b03      	lsrs	r3, r0, #12
 8000150:	428b      	cmp	r3, r1
 8000152:	d319      	bcc.n	8000188 <__udivsi3+0x6c>
 8000154:	e000      	b.n	8000158 <__udivsi3+0x3c>
 8000156:	0a09      	lsrs	r1, r1, #8
 8000158:	0bc3      	lsrs	r3, r0, #15
 800015a:	428b      	cmp	r3, r1
 800015c:	d301      	bcc.n	8000162 <__udivsi3+0x46>
 800015e:	03cb      	lsls	r3, r1, #15
 8000160:	1ac0      	subs	r0, r0, r3
 8000162:	4152      	adcs	r2, r2
 8000164:	0b83      	lsrs	r3, r0, #14
 8000166:	428b      	cmp	r3, r1
 8000168:	d301      	bcc.n	800016e <__udivsi3+0x52>
 800016a:	038b      	lsls	r3, r1, #14
 800016c:	1ac0      	subs	r0, r0, r3
 800016e:	4152      	adcs	r2, r2
 8000170:	0b43      	lsrs	r3, r0, #13
 8000172:	428b      	cmp	r3, r1
 8000174:	d301      	bcc.n	800017a <__udivsi3+0x5e>
 8000176:	034b      	lsls	r3, r1, #13
 8000178:	1ac0      	subs	r0, r0, r3
 800017a:	4152      	adcs	r2, r2
 800017c:	0b03      	lsrs	r3, r0, #12
 800017e:	428b      	cmp	r3, r1
 8000180:	d301      	bcc.n	8000186 <__udivsi3+0x6a>
 8000182:	030b      	lsls	r3, r1, #12
 8000184:	1ac0      	subs	r0, r0, r3
 8000186:	4152      	adcs	r2, r2
 8000188:	0ac3      	lsrs	r3, r0, #11
 800018a:	428b      	cmp	r3, r1
 800018c:	d301      	bcc.n	8000192 <__udivsi3+0x76>
 800018e:	02cb      	lsls	r3, r1, #11
 8000190:	1ac0      	subs	r0, r0, r3
 8000192:	4152      	adcs	r2, r2
 8000194:	0a83      	lsrs	r3, r0, #10
 8000196:	428b      	cmp	r3, r1
 8000198:	d301      	bcc.n	800019e <__udivsi3+0x82>
 800019a:	028b      	lsls	r3, r1, #10
 800019c:	1ac0      	subs	r0, r0, r3
 800019e:	4152      	adcs	r2, r2
 80001a0:	0a43      	lsrs	r3, r0, #9
 80001a2:	428b      	cmp	r3, r1
 80001a4:	d301      	bcc.n	80001aa <__udivsi3+0x8e>
 80001a6:	024b      	lsls	r3, r1, #9
 80001a8:	1ac0      	subs	r0, r0, r3
 80001aa:	4152      	adcs	r2, r2
 80001ac:	0a03      	lsrs	r3, r0, #8
 80001ae:	428b      	cmp	r3, r1
 80001b0:	d301      	bcc.n	80001b6 <__udivsi3+0x9a>
 80001b2:	020b      	lsls	r3, r1, #8
 80001b4:	1ac0      	subs	r0, r0, r3
 80001b6:	4152      	adcs	r2, r2
 80001b8:	d2cd      	bcs.n	8000156 <__udivsi3+0x3a>
 80001ba:	09c3      	lsrs	r3, r0, #7
 80001bc:	428b      	cmp	r3, r1
 80001be:	d301      	bcc.n	80001c4 <__udivsi3+0xa8>
 80001c0:	01cb      	lsls	r3, r1, #7
 80001c2:	1ac0      	subs	r0, r0, r3
 80001c4:	4152      	adcs	r2, r2
 80001c6:	0983      	lsrs	r3, r0, #6
 80001c8:	428b      	cmp	r3, r1
 80001ca:	d301      	bcc.n	80001d0 <__udivsi3+0xb4>
 80001cc:	018b      	lsls	r3, r1, #6
 80001ce:	1ac0      	subs	r0, r0, r3
 80001d0:	4152      	adcs	r2, r2
 80001d2:	0943      	lsrs	r3, r0, #5
 80001d4:	428b      	cmp	r3, r1
 80001d6:	d301      	bcc.n	80001dc <__udivsi3+0xc0>
 80001d8:	014b      	lsls	r3, r1, #5
 80001da:	1ac0      	subs	r0, r0, r3
 80001dc:	4152      	adcs	r2, r2
 80001de:	0903      	lsrs	r3, r0, #4
 80001e0:	428b      	cmp	r3, r1
 80001e2:	d301      	bcc.n	80001e8 <__udivsi3+0xcc>
 80001e4:	010b      	lsls	r3, r1, #4
 80001e6:	1ac0      	subs	r0, r0, r3
 80001e8:	4152      	adcs	r2, r2
 80001ea:	08c3      	lsrs	r3, r0, #3
 80001ec:	428b      	cmp	r3, r1
 80001ee:	d301      	bcc.n	80001f4 <__udivsi3+0xd8>
 80001f0:	00cb      	lsls	r3, r1, #3
 80001f2:	1ac0      	subs	r0, r0, r3
 80001f4:	4152      	adcs	r2, r2
 80001f6:	0883      	lsrs	r3, r0, #2
 80001f8:	428b      	cmp	r3, r1
 80001fa:	d301      	bcc.n	8000200 <__udivsi3+0xe4>
 80001fc:	008b      	lsls	r3, r1, #2
 80001fe:	1ac0      	subs	r0, r0, r3
 8000200:	4152      	adcs	r2, r2
 8000202:	0843      	lsrs	r3, r0, #1
 8000204:	428b      	cmp	r3, r1
 8000206:	d301      	bcc.n	800020c <__udivsi3+0xf0>
 8000208:	004b      	lsls	r3, r1, #1
 800020a:	1ac0      	subs	r0, r0, r3
 800020c:	4152      	adcs	r2, r2
 800020e:	1a41      	subs	r1, r0, r1
 8000210:	d200      	bcs.n	8000214 <__udivsi3+0xf8>
 8000212:	4601      	mov	r1, r0
 8000214:	4152      	adcs	r2, r2
 8000216:	4610      	mov	r0, r2
 8000218:	4770      	bx	lr
 800021a:	e7ff      	b.n	800021c <__udivsi3+0x100>
 800021c:	b501      	push	{r0, lr}
 800021e:	2000      	movs	r0, #0
 8000220:	f000 f806 	bl	8000230 <__aeabi_idiv0>
 8000224:	bd02      	pop	{r1, pc}
 8000226:	46c0      	nop			; (mov r8, r8)

08000228 <__aeabi_uidivmod>:
 8000228:	2900      	cmp	r1, #0
 800022a:	d0f7      	beq.n	800021c <__udivsi3+0x100>
 800022c:	e776      	b.n	800011c <__udivsi3>
 800022e:	4770      	bx	lr

08000230 <__aeabi_idiv0>:
 8000230:	4770      	bx	lr
 8000232:	46c0      	nop			; (mov r8, r8)

08000234 <__aeabi_uldivmod>:
 8000234:	2b00      	cmp	r3, #0
 8000236:	d111      	bne.n	800025c <__aeabi_uldivmod+0x28>
 8000238:	2a00      	cmp	r2, #0
 800023a:	d10f      	bne.n	800025c <__aeabi_uldivmod+0x28>
 800023c:	2900      	cmp	r1, #0
 800023e:	d100      	bne.n	8000242 <__aeabi_uldivmod+0xe>
 8000240:	2800      	cmp	r0, #0
 8000242:	d002      	beq.n	800024a <__aeabi_uldivmod+0x16>
 8000244:	2100      	movs	r1, #0
 8000246:	43c9      	mvns	r1, r1
 8000248:	1c08      	adds	r0, r1, #0
 800024a:	b407      	push	{r0, r1, r2}
 800024c:	4802      	ldr	r0, [pc, #8]	; (8000258 <__aeabi_uldivmod+0x24>)
 800024e:	a102      	add	r1, pc, #8	; (adr r1, 8000258 <__aeabi_uldivmod+0x24>)
 8000250:	1840      	adds	r0, r0, r1
 8000252:	9002      	str	r0, [sp, #8]
 8000254:	bd03      	pop	{r0, r1, pc}
 8000256:	46c0      	nop			; (mov r8, r8)
 8000258:	ffffffd9 	.word	0xffffffd9
 800025c:	b403      	push	{r0, r1}
 800025e:	4668      	mov	r0, sp
 8000260:	b501      	push	{r0, lr}
 8000262:	9802      	ldr	r0, [sp, #8]
 8000264:	f000 f806 	bl	8000274 <__udivmoddi4>
 8000268:	9b01      	ldr	r3, [sp, #4]
 800026a:	469e      	mov	lr, r3
 800026c:	b002      	add	sp, #8
 800026e:	bc0c      	pop	{r2, r3}
 8000270:	4770      	bx	lr
 8000272:	46c0      	nop			; (mov r8, r8)

08000274 <__udivmoddi4>:
 8000274:	b5f0      	push	{r4, r5, r6, r7, lr}
 8000276:	464f      	mov	r7, r9
 8000278:	4646      	mov	r6, r8
 800027a:	46d6      	mov	lr, sl
 800027c:	b5c0      	push	{r6, r7, lr}
 800027e:	0004      	movs	r4, r0
 8000280:	b082      	sub	sp, #8
 8000282:	000d      	movs	r5, r1
 8000284:	4691      	mov	r9, r2
 8000286:	4698      	mov	r8, r3
 8000288:	428b      	cmp	r3, r1
 800028a:	d82f      	bhi.n	80002ec <__udivmoddi4+0x78>
 800028c:	d02c      	beq.n	80002e8 <__udivmoddi4+0x74>
 800028e:	4641      	mov	r1, r8
 8000290:	4648      	mov	r0, r9
 8000292:	f000 fd51 	bl	8000d38 <__clzdi2>
 8000296:	0029      	movs	r1, r5
 8000298:	0006      	movs	r6, r0
 800029a:	0020      	movs	r0, r4
 800029c:	f000 fd4c 	bl	8000d38 <__clzdi2>
 80002a0:	1a33      	subs	r3, r6, r0
 80002a2:	469c      	mov	ip, r3
 80002a4:	3b20      	subs	r3, #32
 80002a6:	469a      	mov	sl, r3
 80002a8:	d500      	bpl.n	80002ac <__udivmoddi4+0x38>
 80002aa:	e076      	b.n	800039a <__udivmoddi4+0x126>
 80002ac:	464b      	mov	r3, r9
 80002ae:	4652      	mov	r2, sl
 80002b0:	4093      	lsls	r3, r2
 80002b2:	001f      	movs	r7, r3
 80002b4:	464b      	mov	r3, r9
 80002b6:	4662      	mov	r2, ip
 80002b8:	4093      	lsls	r3, r2
 80002ba:	001e      	movs	r6, r3
 80002bc:	42af      	cmp	r7, r5
 80002be:	d828      	bhi.n	8000312 <__udivmoddi4+0x9e>
 80002c0:	d025      	beq.n	800030e <__udivmoddi4+0x9a>
 80002c2:	4653      	mov	r3, sl
 80002c4:	1ba4      	subs	r4, r4, r6
 80002c6:	41bd      	sbcs	r5, r7
 80002c8:	2b00      	cmp	r3, #0
 80002ca:	da00      	bge.n	80002ce <__udivmoddi4+0x5a>
 80002cc:	e07b      	b.n	80003c6 <__udivmoddi4+0x152>
 80002ce:	2200      	movs	r2, #0
 80002d0:	2300      	movs	r3, #0
 80002d2:	9200      	str	r2, [sp, #0]
 80002d4:	9301      	str	r3, [sp, #4]
 80002d6:	2301      	movs	r3, #1
 80002d8:	4652      	mov	r2, sl
 80002da:	4093      	lsls	r3, r2
 80002dc:	9301      	str	r3, [sp, #4]
 80002de:	2301      	movs	r3, #1
 80002e0:	4662      	mov	r2, ip
 80002e2:	4093      	lsls	r3, r2
 80002e4:	9300      	str	r3, [sp, #0]
 80002e6:	e018      	b.n	800031a <__udivmoddi4+0xa6>
 80002e8:	4282      	cmp	r2, r0
 80002ea:	d9d0      	bls.n	800028e <__udivmoddi4+0x1a>
 80002ec:	2200      	movs	r2, #0
 80002ee:	2300      	movs	r3, #0
 80002f0:	9200      	str	r2, [sp, #0]
 80002f2:	9301      	str	r3, [sp, #4]
 80002f4:	9b0a      	ldr	r3, [sp, #40]	; 0x28
 80002f6:	2b00      	cmp	r3, #0
 80002f8:	d001      	beq.n	80002fe <__udivmoddi4+0x8a>
 80002fa:	601c      	str	r4, [r3, #0]
 80002fc:	605d      	str	r5, [r3, #4]
 80002fe:	9800      	ldr	r0, [sp, #0]
 8000300:	9901      	ldr	r1, [sp, #4]
 8000302:	b002      	add	sp, #8
 8000304:	bc1c      	pop	{r2, r3, r4}
 8000306:	4690      	mov	r8, r2
 8000308:	4699      	mov	r9, r3
 800030a:	46a2      	mov	sl, r4
 800030c:	bdf0      	pop	{r4, r5, r6, r7, pc}
 800030e:	42a3      	cmp	r3, r4
 8000310:	d9d7      	bls.n	80002c2 <__udivmoddi4+0x4e>
 8000312:	2200      	movs	r2, #0
 8000314:	2300      	movs	r3, #0
 8000316:	9200      	str	r2, [sp, #0]
 8000318:	9301      	str	r3, [sp, #4]
 800031a:	4663      	mov	r3, ip
 800031c:	2b00      	cmp	r3, #0
 800031e:	d0e9      	beq.n	80002f4 <__udivmoddi4+0x80>
 8000320:	07fb      	lsls	r3, r7, #31
 8000322:	4698      	mov	r8, r3
 8000324:	4641      	mov	r1, r8
 8000326:	0872      	lsrs	r2, r6, #1
 8000328:	430a      	orrs	r2, r1
 800032a:	087b      	lsrs	r3, r7, #1
 800032c:	4666      	mov	r6, ip
 800032e:	e00e      	b.n	800034e <__udivmoddi4+0xda>
 8000330:	42ab      	cmp	r3, r5
 8000332:	d101      	bne.n	8000338 <__udivmoddi4+0xc4>
 8000334:	42a2      	cmp	r2, r4
 8000336:	d80c      	bhi.n	8000352 <__udivmoddi4+0xde>
 8000338:	1aa4      	subs	r4, r4, r2
 800033a:	419d      	sbcs	r5, r3
 800033c:	2001      	movs	r0, #1
 800033e:	1924      	adds	r4, r4, r4
 8000340:	416d      	adcs	r5, r5
 8000342:	2100      	movs	r1, #0
 8000344:	3e01      	subs	r6, #1
 8000346:	1824      	adds	r4, r4, r0
 8000348:	414d      	adcs	r5, r1
 800034a:	2e00      	cmp	r6, #0
 800034c:	d006      	beq.n	800035c <__udivmoddi4+0xe8>
 800034e:	42ab      	cmp	r3, r5
 8000350:	d9ee      	bls.n	8000330 <__udivmoddi4+0xbc>
 8000352:	3e01      	subs	r6, #1
 8000354:	1924      	adds	r4, r4, r4
 8000356:	416d      	adcs	r5, r5
 8000358:	2e00      	cmp	r6, #0
 800035a:	d1f8      	bne.n	800034e <__udivmoddi4+0xda>
 800035c:	9800      	ldr	r0, [sp, #0]
 800035e:	9901      	ldr	r1, [sp, #4]
 8000360:	4653      	mov	r3, sl
 8000362:	1900      	adds	r0, r0, r4
 8000364:	4169      	adcs	r1, r5
 8000366:	2b00      	cmp	r3, #0
 8000368:	db23      	blt.n	80003b2 <__udivmoddi4+0x13e>
 800036a:	002b      	movs	r3, r5
 800036c:	4652      	mov	r2, sl
 800036e:	40d3      	lsrs	r3, r2
 8000370:	002a      	movs	r2, r5
 8000372:	4664      	mov	r4, ip
 8000374:	40e2      	lsrs	r2, r4
 8000376:	001c      	movs	r4, r3
 8000378:	4653      	mov	r3, sl
 800037a:	0015      	movs	r5, r2
 800037c:	2b00      	cmp	r3, #0
 800037e:	db2d      	blt.n	80003dc <__udivmoddi4+0x168>
 8000380:	0026      	movs	r6, r4
 8000382:	4657      	mov	r7, sl
 8000384:	40be      	lsls	r6, r7
 8000386:	0033      	movs	r3, r6
 8000388:	0026      	movs	r6, r4
 800038a:	4667      	mov	r7, ip
 800038c:	40be      	lsls	r6, r7
 800038e:	0032      	movs	r2, r6
 8000390:	1a80      	subs	r0, r0, r2
 8000392:	4199      	sbcs	r1, r3
 8000394:	9000      	str	r0, [sp, #0]
 8000396:	9101      	str	r1, [sp, #4]
 8000398:	e7ac      	b.n	80002f4 <__udivmoddi4+0x80>
 800039a:	4662      	mov	r2, ip
 800039c:	2320      	movs	r3, #32
 800039e:	1a9b      	subs	r3, r3, r2
 80003a0:	464a      	mov	r2, r9
 80003a2:	40da      	lsrs	r2, r3
 80003a4:	4661      	mov	r1, ip
 80003a6:	0013      	movs	r3, r2
 80003a8:	4642      	mov	r2, r8
 80003aa:	408a      	lsls	r2, r1
 80003ac:	0017      	movs	r7, r2
 80003ae:	431f      	orrs	r7, r3
 80003b0:	e780      	b.n	80002b4 <__udivmoddi4+0x40>
 80003b2:	4662      	mov	r2, ip
 80003b4:	2320      	movs	r3, #32
 80003b6:	1a9b      	subs	r3, r3, r2
 80003b8:	002a      	movs	r2, r5
 80003ba:	4666      	mov	r6, ip
 80003bc:	409a      	lsls	r2, r3
 80003be:	0023      	movs	r3, r4
 80003c0:	40f3      	lsrs	r3, r6
 80003c2:	4313      	orrs	r3, r2
 80003c4:	e7d4      	b.n	8000370 <__udivmoddi4+0xfc>
 80003c6:	4662      	mov	r2, ip
 80003c8:	2320      	movs	r3, #32
 80003ca:	2100      	movs	r1, #0
 80003cc:	1a9b      	subs	r3, r3, r2
 80003ce:	2200      	movs	r2, #0
 80003d0:	9100      	str	r1, [sp, #0]
 80003d2:	9201      	str	r2, [sp, #4]
 80003d4:	2201      	movs	r2, #1
 80003d6:	40da      	lsrs	r2, r3
 80003d8:	9201      	str	r2, [sp, #4]
 80003da:	e780      	b.n	80002de <__udivmoddi4+0x6a>
 80003dc:	2320      	movs	r3, #32
 80003de:	4662      	mov	r2, ip
 80003e0:	0026      	movs	r6, r4
 80003e2:	1a9b      	subs	r3, r3, r2
 80003e4:	40de      	lsrs	r6, r3
 80003e6:	002f      	movs	r7, r5
 80003e8:	46b0      	mov	r8, r6
 80003ea:	4666      	mov	r6, ip
 80003ec:	40b7      	lsls	r7, r6
 80003ee:	4646      	mov	r6, r8
 80003f0:	003b      	movs	r3, r7
 80003f2:	4333      	orrs	r3, r6
 80003f4:	e7c8      	b.n	8000388 <__udivmoddi4+0x114>
 80003f6:	46c0      	nop			; (mov r8, r8)

080003f8 <__aeabi_fmul>:
 80003f8:	b5f0      	push	{r4, r5, r6, r7, lr}
 80003fa:	464e      	mov	r6, r9
 80003fc:	4657      	mov	r7, sl
 80003fe:	4645      	mov	r5, r8
 8000400:	46de      	mov	lr, fp
 8000402:	b5e0      	push	{r5, r6, r7, lr}
 8000404:	0243      	lsls	r3, r0, #9
 8000406:	0a5b      	lsrs	r3, r3, #9
 8000408:	0045      	lsls	r5, r0, #1
 800040a:	b083      	sub	sp, #12
 800040c:	1c0f      	adds	r7, r1, #0
 800040e:	4699      	mov	r9, r3
 8000410:	0e2d      	lsrs	r5, r5, #24
 8000412:	0fc6      	lsrs	r6, r0, #31
 8000414:	2d00      	cmp	r5, #0
 8000416:	d057      	beq.n	80004c8 <__aeabi_fmul+0xd0>
 8000418:	2dff      	cmp	r5, #255	; 0xff
 800041a:	d024      	beq.n	8000466 <__aeabi_fmul+0x6e>
 800041c:	2080      	movs	r0, #128	; 0x80
 800041e:	00db      	lsls	r3, r3, #3
 8000420:	04c0      	lsls	r0, r0, #19
 8000422:	4318      	orrs	r0, r3
 8000424:	2300      	movs	r3, #0
 8000426:	4681      	mov	r9, r0
 8000428:	469a      	mov	sl, r3
 800042a:	469b      	mov	fp, r3
 800042c:	3d7f      	subs	r5, #127	; 0x7f
 800042e:	027c      	lsls	r4, r7, #9
 8000430:	007a      	lsls	r2, r7, #1
 8000432:	0ffb      	lsrs	r3, r7, #31
 8000434:	0a64      	lsrs	r4, r4, #9
 8000436:	0e12      	lsrs	r2, r2, #24
 8000438:	4698      	mov	r8, r3
 800043a:	d023      	beq.n	8000484 <__aeabi_fmul+0x8c>
 800043c:	2aff      	cmp	r2, #255	; 0xff
 800043e:	d04b      	beq.n	80004d8 <__aeabi_fmul+0xe0>
 8000440:	00e3      	lsls	r3, r4, #3
 8000442:	2480      	movs	r4, #128	; 0x80
 8000444:	2000      	movs	r0, #0
 8000446:	04e4      	lsls	r4, r4, #19
 8000448:	3a7f      	subs	r2, #127	; 0x7f
 800044a:	431c      	orrs	r4, r3
 800044c:	18ad      	adds	r5, r5, r2
 800044e:	1c6b      	adds	r3, r5, #1
 8000450:	4647      	mov	r7, r8
 8000452:	9301      	str	r3, [sp, #4]
 8000454:	4653      	mov	r3, sl
 8000456:	4077      	eors	r7, r6
 8000458:	003a      	movs	r2, r7
 800045a:	2b0f      	cmp	r3, #15
 800045c:	d848      	bhi.n	80004f0 <__aeabi_fmul+0xf8>
 800045e:	497d      	ldr	r1, [pc, #500]	; (8000654 <__aeabi_fmul+0x25c>)
 8000460:	009b      	lsls	r3, r3, #2
 8000462:	58cb      	ldr	r3, [r1, r3]
 8000464:	469f      	mov	pc, r3
 8000466:	2b00      	cmp	r3, #0
 8000468:	d000      	beq.n	800046c <__aeabi_fmul+0x74>
 800046a:	e085      	b.n	8000578 <__aeabi_fmul+0x180>
 800046c:	3308      	adds	r3, #8
 800046e:	469a      	mov	sl, r3
 8000470:	3b06      	subs	r3, #6
 8000472:	469b      	mov	fp, r3
 8000474:	027c      	lsls	r4, r7, #9
 8000476:	007a      	lsls	r2, r7, #1
 8000478:	0ffb      	lsrs	r3, r7, #31
 800047a:	25ff      	movs	r5, #255	; 0xff
 800047c:	0a64      	lsrs	r4, r4, #9
 800047e:	0e12      	lsrs	r2, r2, #24
 8000480:	4698      	mov	r8, r3
 8000482:	d1db      	bne.n	800043c <__aeabi_fmul+0x44>
 8000484:	2c00      	cmp	r4, #0
 8000486:	d000      	beq.n	800048a <__aeabi_fmul+0x92>
 8000488:	e090      	b.n	80005ac <__aeabi_fmul+0x1b4>
 800048a:	4652      	mov	r2, sl
 800048c:	2301      	movs	r3, #1
 800048e:	431a      	orrs	r2, r3
 8000490:	4692      	mov	sl, r2
 8000492:	2001      	movs	r0, #1
 8000494:	e7db      	b.n	800044e <__aeabi_fmul+0x56>
 8000496:	464c      	mov	r4, r9
 8000498:	4658      	mov	r0, fp
 800049a:	0017      	movs	r7, r2
 800049c:	2802      	cmp	r0, #2
 800049e:	d024      	beq.n	80004ea <__aeabi_fmul+0xf2>
 80004a0:	2803      	cmp	r0, #3
 80004a2:	d100      	bne.n	80004a6 <__aeabi_fmul+0xae>
 80004a4:	e0cf      	b.n	8000646 <__aeabi_fmul+0x24e>
 80004a6:	2200      	movs	r2, #0
 80004a8:	2300      	movs	r3, #0
 80004aa:	2801      	cmp	r0, #1
 80004ac:	d14d      	bne.n	800054a <__aeabi_fmul+0x152>
 80004ae:	0258      	lsls	r0, r3, #9
 80004b0:	05d2      	lsls	r2, r2, #23
 80004b2:	0a40      	lsrs	r0, r0, #9
 80004b4:	07ff      	lsls	r7, r7, #31
 80004b6:	4310      	orrs	r0, r2
 80004b8:	4338      	orrs	r0, r7
 80004ba:	b003      	add	sp, #12
 80004bc:	bc3c      	pop	{r2, r3, r4, r5}
 80004be:	4690      	mov	r8, r2
 80004c0:	4699      	mov	r9, r3
 80004c2:	46a2      	mov	sl, r4
 80004c4:	46ab      	mov	fp, r5
 80004c6:	bdf0      	pop	{r4, r5, r6, r7, pc}
 80004c8:	2b00      	cmp	r3, #0
 80004ca:	d15b      	bne.n	8000584 <__aeabi_fmul+0x18c>
 80004cc:	2304      	movs	r3, #4
 80004ce:	469a      	mov	sl, r3
 80004d0:	3b03      	subs	r3, #3
 80004d2:	2500      	movs	r5, #0
 80004d4:	469b      	mov	fp, r3
 80004d6:	e7aa      	b.n	800042e <__aeabi_fmul+0x36>
 80004d8:	35ff      	adds	r5, #255	; 0xff
 80004da:	2c00      	cmp	r4, #0
 80004dc:	d160      	bne.n	80005a0 <__aeabi_fmul+0x1a8>
 80004de:	4652      	mov	r2, sl
 80004e0:	2302      	movs	r3, #2
 80004e2:	431a      	orrs	r2, r3
 80004e4:	4692      	mov	sl, r2
 80004e6:	2002      	movs	r0, #2
 80004e8:	e7b1      	b.n	800044e <__aeabi_fmul+0x56>
 80004ea:	22ff      	movs	r2, #255	; 0xff
 80004ec:	2300      	movs	r3, #0
 80004ee:	e7de      	b.n	80004ae <__aeabi_fmul+0xb6>
 80004f0:	464b      	mov	r3, r9
 80004f2:	0c1b      	lsrs	r3, r3, #16
 80004f4:	469c      	mov	ip, r3
 80004f6:	464b      	mov	r3, r9
 80004f8:	0426      	lsls	r6, r4, #16
 80004fa:	0c36      	lsrs	r6, r6, #16
 80004fc:	0418      	lsls	r0, r3, #16
 80004fe:	4661      	mov	r1, ip
 8000500:	0033      	movs	r3, r6
 8000502:	0c22      	lsrs	r2, r4, #16
 8000504:	4664      	mov	r4, ip
 8000506:	0c00      	lsrs	r0, r0, #16
 8000508:	4343      	muls	r3, r0
 800050a:	434e      	muls	r6, r1
 800050c:	4350      	muls	r0, r2
 800050e:	4354      	muls	r4, r2
 8000510:	1980      	adds	r0, r0, r6
 8000512:	0c1a      	lsrs	r2, r3, #16
 8000514:	1812      	adds	r2, r2, r0
 8000516:	4296      	cmp	r6, r2
 8000518:	d903      	bls.n	8000522 <__aeabi_fmul+0x12a>
 800051a:	2180      	movs	r1, #128	; 0x80
 800051c:	0249      	lsls	r1, r1, #9
 800051e:	468c      	mov	ip, r1
 8000520:	4464      	add	r4, ip
 8000522:	041b      	lsls	r3, r3, #16
 8000524:	0c1b      	lsrs	r3, r3, #16
 8000526:	0410      	lsls	r0, r2, #16
 8000528:	18c0      	adds	r0, r0, r3
 800052a:	0183      	lsls	r3, r0, #6
 800052c:	1e5e      	subs	r6, r3, #1
 800052e:	41b3      	sbcs	r3, r6
 8000530:	0e80      	lsrs	r0, r0, #26
 8000532:	4318      	orrs	r0, r3
 8000534:	0c13      	lsrs	r3, r2, #16
 8000536:	191b      	adds	r3, r3, r4
 8000538:	019b      	lsls	r3, r3, #6
 800053a:	4303      	orrs	r3, r0
 800053c:	001c      	movs	r4, r3
 800053e:	0123      	lsls	r3, r4, #4
 8000540:	d579      	bpl.n	8000636 <__aeabi_fmul+0x23e>
 8000542:	2301      	movs	r3, #1
 8000544:	0862      	lsrs	r2, r4, #1
 8000546:	401c      	ands	r4, r3
 8000548:	4314      	orrs	r4, r2
 800054a:	9a01      	ldr	r2, [sp, #4]
 800054c:	327f      	adds	r2, #127	; 0x7f
 800054e:	2a00      	cmp	r2, #0
 8000550:	dd4d      	ble.n	80005ee <__aeabi_fmul+0x1f6>
 8000552:	0763      	lsls	r3, r4, #29
 8000554:	d004      	beq.n	8000560 <__aeabi_fmul+0x168>
 8000556:	230f      	movs	r3, #15
 8000558:	4023      	ands	r3, r4
 800055a:	2b04      	cmp	r3, #4
 800055c:	d000      	beq.n	8000560 <__aeabi_fmul+0x168>
 800055e:	3404      	adds	r4, #4
 8000560:	0123      	lsls	r3, r4, #4
 8000562:	d503      	bpl.n	800056c <__aeabi_fmul+0x174>
 8000564:	4b3c      	ldr	r3, [pc, #240]	; (8000658 <__aeabi_fmul+0x260>)
 8000566:	9a01      	ldr	r2, [sp, #4]
 8000568:	401c      	ands	r4, r3
 800056a:	3280      	adds	r2, #128	; 0x80
 800056c:	2afe      	cmp	r2, #254	; 0xfe
 800056e:	dcbc      	bgt.n	80004ea <__aeabi_fmul+0xf2>
 8000570:	01a3      	lsls	r3, r4, #6
 8000572:	0a5b      	lsrs	r3, r3, #9
 8000574:	b2d2      	uxtb	r2, r2
 8000576:	e79a      	b.n	80004ae <__aeabi_fmul+0xb6>
 8000578:	230c      	movs	r3, #12
 800057a:	469a      	mov	sl, r3
 800057c:	3b09      	subs	r3, #9
 800057e:	25ff      	movs	r5, #255	; 0xff
 8000580:	469b      	mov	fp, r3
 8000582:	e754      	b.n	800042e <__aeabi_fmul+0x36>
 8000584:	0018      	movs	r0, r3
 8000586:	f000 fbb9 	bl	8000cfc <__clzsi2>
 800058a:	464a      	mov	r2, r9
 800058c:	1f43      	subs	r3, r0, #5
 800058e:	2576      	movs	r5, #118	; 0x76
 8000590:	409a      	lsls	r2, r3
 8000592:	2300      	movs	r3, #0
 8000594:	426d      	negs	r5, r5
 8000596:	4691      	mov	r9, r2
 8000598:	1a2d      	subs	r5, r5, r0
 800059a:	469a      	mov	sl, r3
 800059c:	469b      	mov	fp, r3
 800059e:	e746      	b.n	800042e <__aeabi_fmul+0x36>
 80005a0:	4652      	mov	r2, sl
 80005a2:	2303      	movs	r3, #3
 80005a4:	431a      	orrs	r2, r3
 80005a6:	4692      	mov	sl, r2
 80005a8:	2003      	movs	r0, #3
 80005aa:	e750      	b.n	800044e <__aeabi_fmul+0x56>
 80005ac:	0020      	movs	r0, r4
 80005ae:	f000 fba5 	bl	8000cfc <__clzsi2>
 80005b2:	1f43      	subs	r3, r0, #5
 80005b4:	1a2d      	subs	r5, r5, r0
 80005b6:	409c      	lsls	r4, r3
 80005b8:	3d76      	subs	r5, #118	; 0x76
 80005ba:	2000      	movs	r0, #0
 80005bc:	e747      	b.n	800044e <__aeabi_fmul+0x56>
 80005be:	2380      	movs	r3, #128	; 0x80
 80005c0:	2700      	movs	r7, #0
 80005c2:	03db      	lsls	r3, r3, #15
 80005c4:	22ff      	movs	r2, #255	; 0xff
 80005c6:	e772      	b.n	80004ae <__aeabi_fmul+0xb6>
 80005c8:	4642      	mov	r2, r8
 80005ca:	e766      	b.n	800049a <__aeabi_fmul+0xa2>
 80005cc:	464c      	mov	r4, r9
 80005ce:	0032      	movs	r2, r6
 80005d0:	4658      	mov	r0, fp
 80005d2:	e762      	b.n	800049a <__aeabi_fmul+0xa2>
 80005d4:	2380      	movs	r3, #128	; 0x80
 80005d6:	464a      	mov	r2, r9
 80005d8:	03db      	lsls	r3, r3, #15
 80005da:	421a      	tst	r2, r3
 80005dc:	d022      	beq.n	8000624 <__aeabi_fmul+0x22c>
 80005de:	421c      	tst	r4, r3
 80005e0:	d120      	bne.n	8000624 <__aeabi_fmul+0x22c>
 80005e2:	4323      	orrs	r3, r4
 80005e4:	025b      	lsls	r3, r3, #9
 80005e6:	0a5b      	lsrs	r3, r3, #9
 80005e8:	4647      	mov	r7, r8
 80005ea:	22ff      	movs	r2, #255	; 0xff
 80005ec:	e75f      	b.n	80004ae <__aeabi_fmul+0xb6>
 80005ee:	2301      	movs	r3, #1
 80005f0:	1a9a      	subs	r2, r3, r2
 80005f2:	2a1b      	cmp	r2, #27
 80005f4:	dc21      	bgt.n	800063a <__aeabi_fmul+0x242>
 80005f6:	0023      	movs	r3, r4
 80005f8:	9901      	ldr	r1, [sp, #4]
 80005fa:	40d3      	lsrs	r3, r2
 80005fc:	319e      	adds	r1, #158	; 0x9e
 80005fe:	408c      	lsls	r4, r1
 8000600:	001a      	movs	r2, r3
 8000602:	0023      	movs	r3, r4
 8000604:	1e5c      	subs	r4, r3, #1
 8000606:	41a3      	sbcs	r3, r4
 8000608:	4313      	orrs	r3, r2
 800060a:	075a      	lsls	r2, r3, #29
 800060c:	d004      	beq.n	8000618 <__aeabi_fmul+0x220>
 800060e:	220f      	movs	r2, #15
 8000610:	401a      	ands	r2, r3
 8000612:	2a04      	cmp	r2, #4
 8000614:	d000      	beq.n	8000618 <__aeabi_fmul+0x220>
 8000616:	3304      	adds	r3, #4
 8000618:	015a      	lsls	r2, r3, #5
 800061a:	d411      	bmi.n	8000640 <__aeabi_fmul+0x248>
 800061c:	019b      	lsls	r3, r3, #6
 800061e:	0a5b      	lsrs	r3, r3, #9
 8000620:	2200      	movs	r2, #0
 8000622:	e744      	b.n	80004ae <__aeabi_fmul+0xb6>
 8000624:	2380      	movs	r3, #128	; 0x80
 8000626:	464a      	mov	r2, r9
 8000628:	03db      	lsls	r3, r3, #15
 800062a:	4313      	orrs	r3, r2
 800062c:	025b      	lsls	r3, r3, #9
 800062e:	0a5b      	lsrs	r3, r3, #9
 8000630:	0037      	movs	r7, r6
 8000632:	22ff      	movs	r2, #255	; 0xff
 8000634:	e73b      	b.n	80004ae <__aeabi_fmul+0xb6>
 8000636:	9501      	str	r5, [sp, #4]
 8000638:	e787      	b.n	800054a <__aeabi_fmul+0x152>
 800063a:	2200      	movs	r2, #0
 800063c:	2300      	movs	r3, #0
 800063e:	e736      	b.n	80004ae <__aeabi_fmul+0xb6>
 8000640:	2201      	movs	r2, #1
 8000642:	2300      	movs	r3, #0
 8000644:	e733      	b.n	80004ae <__aeabi_fmul+0xb6>
 8000646:	2380      	movs	r3, #128	; 0x80
 8000648:	03db      	lsls	r3, r3, #15
 800064a:	4323      	orrs	r3, r4
 800064c:	025b      	lsls	r3, r3, #9
 800064e:	0a5b      	lsrs	r3, r3, #9
 8000650:	22ff      	movs	r2, #255	; 0xff
 8000652:	e72c      	b.n	80004ae <__aeabi_fmul+0xb6>
 8000654:	08003694 	.word	0x08003694
 8000658:	f7ffffff 	.word	0xf7ffffff

0800065c <__aeabi_f2iz>:
 800065c:	0241      	lsls	r1, r0, #9
 800065e:	0042      	lsls	r2, r0, #1
 8000660:	0fc3      	lsrs	r3, r0, #31
 8000662:	0a49      	lsrs	r1, r1, #9
 8000664:	0e12      	lsrs	r2, r2, #24
 8000666:	2000      	movs	r0, #0
 8000668:	2a7e      	cmp	r2, #126	; 0x7e
 800066a:	d90d      	bls.n	8000688 <__aeabi_f2iz+0x2c>
 800066c:	2a9d      	cmp	r2, #157	; 0x9d
 800066e:	d80c      	bhi.n	800068a <__aeabi_f2iz+0x2e>
 8000670:	2080      	movs	r0, #128	; 0x80
 8000672:	0400      	lsls	r0, r0, #16
 8000674:	4301      	orrs	r1, r0
 8000676:	2a95      	cmp	r2, #149	; 0x95
 8000678:	dc0a      	bgt.n	8000690 <__aeabi_f2iz+0x34>
 800067a:	2096      	movs	r0, #150	; 0x96
 800067c:	1a82      	subs	r2, r0, r2
 800067e:	40d1      	lsrs	r1, r2
 8000680:	4248      	negs	r0, r1
 8000682:	2b00      	cmp	r3, #0
 8000684:	d100      	bne.n	8000688 <__aeabi_f2iz+0x2c>
 8000686:	0008      	movs	r0, r1
 8000688:	4770      	bx	lr
 800068a:	4a03      	ldr	r2, [pc, #12]	; (8000698 <__aeabi_f2iz+0x3c>)
 800068c:	1898      	adds	r0, r3, r2
 800068e:	e7fb      	b.n	8000688 <__aeabi_f2iz+0x2c>
 8000690:	3a96      	subs	r2, #150	; 0x96
 8000692:	4091      	lsls	r1, r2
 8000694:	e7f4      	b.n	8000680 <__aeabi_f2iz+0x24>
 8000696:	46c0      	nop			; (mov r8, r8)
 8000698:	7fffffff 	.word	0x7fffffff

0800069c <__aeabi_dmul>:
 800069c:	b5f0      	push	{r4, r5, r6, r7, lr}
 800069e:	4657      	mov	r7, sl
 80006a0:	46de      	mov	lr, fp
 80006a2:	464e      	mov	r6, r9
 80006a4:	4645      	mov	r5, r8
 80006a6:	b5e0      	push	{r5, r6, r7, lr}
 80006a8:	4683      	mov	fp, r0
 80006aa:	0006      	movs	r6, r0
 80006ac:	030f      	lsls	r7, r1, #12
 80006ae:	0048      	lsls	r0, r1, #1
 80006b0:	b087      	sub	sp, #28
 80006b2:	4692      	mov	sl, r2
 80006b4:	001d      	movs	r5, r3
 80006b6:	0b3f      	lsrs	r7, r7, #12
 80006b8:	0d40      	lsrs	r0, r0, #21
 80006ba:	0fcc      	lsrs	r4, r1, #31
 80006bc:	2800      	cmp	r0, #0
 80006be:	d100      	bne.n	80006c2 <__aeabi_dmul+0x26>
 80006c0:	e06f      	b.n	80007a2 <__aeabi_dmul+0x106>
 80006c2:	4bde      	ldr	r3, [pc, #888]	; (8000a3c <__aeabi_dmul+0x3a0>)
 80006c4:	4298      	cmp	r0, r3
 80006c6:	d038      	beq.n	800073a <__aeabi_dmul+0x9e>
 80006c8:	2380      	movs	r3, #128	; 0x80
 80006ca:	00ff      	lsls	r7, r7, #3
 80006cc:	041b      	lsls	r3, r3, #16
 80006ce:	431f      	orrs	r7, r3
 80006d0:	0f73      	lsrs	r3, r6, #29
 80006d2:	433b      	orrs	r3, r7
 80006d4:	9301      	str	r3, [sp, #4]
 80006d6:	4bda      	ldr	r3, [pc, #872]	; (8000a40 <__aeabi_dmul+0x3a4>)
 80006d8:	2700      	movs	r7, #0
 80006da:	4699      	mov	r9, r3
 80006dc:	2300      	movs	r3, #0
 80006de:	469b      	mov	fp, r3
 80006e0:	00f6      	lsls	r6, r6, #3
 80006e2:	4481      	add	r9, r0
 80006e4:	032b      	lsls	r3, r5, #12
 80006e6:	0069      	lsls	r1, r5, #1
 80006e8:	0b1b      	lsrs	r3, r3, #12
 80006ea:	4652      	mov	r2, sl
 80006ec:	4698      	mov	r8, r3
 80006ee:	0d49      	lsrs	r1, r1, #21
 80006f0:	0fed      	lsrs	r5, r5, #31
 80006f2:	2900      	cmp	r1, #0
 80006f4:	d100      	bne.n	80006f8 <__aeabi_dmul+0x5c>
 80006f6:	e085      	b.n	8000804 <__aeabi_dmul+0x168>
 80006f8:	4bd0      	ldr	r3, [pc, #832]	; (8000a3c <__aeabi_dmul+0x3a0>)
 80006fa:	4299      	cmp	r1, r3
 80006fc:	d100      	bne.n	8000700 <__aeabi_dmul+0x64>
 80006fe:	e073      	b.n	80007e8 <__aeabi_dmul+0x14c>
 8000700:	4643      	mov	r3, r8
 8000702:	00da      	lsls	r2, r3, #3
 8000704:	2380      	movs	r3, #128	; 0x80
 8000706:	041b      	lsls	r3, r3, #16
 8000708:	4313      	orrs	r3, r2
 800070a:	4652      	mov	r2, sl
 800070c:	48cc      	ldr	r0, [pc, #816]	; (8000a40 <__aeabi_dmul+0x3a4>)
 800070e:	0f52      	lsrs	r2, r2, #29
 8000710:	4684      	mov	ip, r0
 8000712:	4313      	orrs	r3, r2
 8000714:	4652      	mov	r2, sl
 8000716:	2000      	movs	r0, #0
 8000718:	4461      	add	r1, ip
 800071a:	00d2      	lsls	r2, r2, #3
 800071c:	4489      	add	r9, r1
 800071e:	0021      	movs	r1, r4
 8000720:	4069      	eors	r1, r5
 8000722:	9100      	str	r1, [sp, #0]
 8000724:	468c      	mov	ip, r1
 8000726:	2101      	movs	r1, #1
 8000728:	4449      	add	r1, r9
 800072a:	468a      	mov	sl, r1
 800072c:	2f0f      	cmp	r7, #15
 800072e:	d900      	bls.n	8000732 <__aeabi_dmul+0x96>
 8000730:	e090      	b.n	8000854 <__aeabi_dmul+0x1b8>
 8000732:	49c4      	ldr	r1, [pc, #784]	; (8000a44 <__aeabi_dmul+0x3a8>)
 8000734:	00bf      	lsls	r7, r7, #2
 8000736:	59cf      	ldr	r7, [r1, r7]
 8000738:	46bf      	mov	pc, r7
 800073a:	465b      	mov	r3, fp
 800073c:	433b      	orrs	r3, r7
 800073e:	9301      	str	r3, [sp, #4]
 8000740:	d000      	beq.n	8000744 <__aeabi_dmul+0xa8>
 8000742:	e16a      	b.n	8000a1a <__aeabi_dmul+0x37e>
 8000744:	2302      	movs	r3, #2
 8000746:	2708      	movs	r7, #8
 8000748:	2600      	movs	r6, #0
 800074a:	4681      	mov	r9, r0
 800074c:	469b      	mov	fp, r3
 800074e:	e7c9      	b.n	80006e4 <__aeabi_dmul+0x48>
 8000750:	0032      	movs	r2, r6
 8000752:	4658      	mov	r0, fp
 8000754:	9b01      	ldr	r3, [sp, #4]
 8000756:	4661      	mov	r1, ip
 8000758:	9100      	str	r1, [sp, #0]
 800075a:	2802      	cmp	r0, #2
 800075c:	d100      	bne.n	8000760 <__aeabi_dmul+0xc4>
 800075e:	e075      	b.n	800084c <__aeabi_dmul+0x1b0>
 8000760:	2803      	cmp	r0, #3
 8000762:	d100      	bne.n	8000766 <__aeabi_dmul+0xca>
 8000764:	e1fe      	b.n	8000b64 <__aeabi_dmul+0x4c8>
 8000766:	2801      	cmp	r0, #1
 8000768:	d000      	beq.n	800076c <__aeabi_dmul+0xd0>
 800076a:	e12c      	b.n	80009c6 <__aeabi_dmul+0x32a>
 800076c:	2300      	movs	r3, #0
 800076e:	2700      	movs	r7, #0
 8000770:	2600      	movs	r6, #0
 8000772:	2500      	movs	r5, #0
 8000774:	033f      	lsls	r7, r7, #12
 8000776:	0d2a      	lsrs	r2, r5, #20
 8000778:	0b3f      	lsrs	r7, r7, #12
 800077a:	48b3      	ldr	r0, [pc, #716]	; (8000a48 <__aeabi_dmul+0x3ac>)
 800077c:	0512      	lsls	r2, r2, #20
 800077e:	433a      	orrs	r2, r7
 8000780:	4002      	ands	r2, r0
 8000782:	051b      	lsls	r3, r3, #20
 8000784:	4313      	orrs	r3, r2
 8000786:	9a00      	ldr	r2, [sp, #0]
 8000788:	005b      	lsls	r3, r3, #1
 800078a:	07d1      	lsls	r1, r2, #31
 800078c:	085b      	lsrs	r3, r3, #1
 800078e:	430b      	orrs	r3, r1
 8000790:	0030      	movs	r0, r6
 8000792:	0019      	movs	r1, r3
 8000794:	b007      	add	sp, #28
 8000796:	bc3c      	pop	{r2, r3, r4, r5}
 8000798:	4690      	mov	r8, r2
 800079a:	4699      	mov	r9, r3
 800079c:	46a2      	mov	sl, r4
 800079e:	46ab      	mov	fp, r5
 80007a0:	bdf0      	pop	{r4, r5, r6, r7, pc}
 80007a2:	465b      	mov	r3, fp
 80007a4:	433b      	orrs	r3, r7
 80007a6:	9301      	str	r3, [sp, #4]
 80007a8:	d100      	bne.n	80007ac <__aeabi_dmul+0x110>
 80007aa:	e12f      	b.n	8000a0c <__aeabi_dmul+0x370>
 80007ac:	2f00      	cmp	r7, #0
 80007ae:	d100      	bne.n	80007b2 <__aeabi_dmul+0x116>
 80007b0:	e1a5      	b.n	8000afe <__aeabi_dmul+0x462>
 80007b2:	0038      	movs	r0, r7
 80007b4:	f000 faa2 	bl	8000cfc <__clzsi2>
 80007b8:	0003      	movs	r3, r0
 80007ba:	3b0b      	subs	r3, #11
 80007bc:	2b1c      	cmp	r3, #28
 80007be:	dd00      	ble.n	80007c2 <__aeabi_dmul+0x126>
 80007c0:	e196      	b.n	8000af0 <__aeabi_dmul+0x454>
 80007c2:	221d      	movs	r2, #29
 80007c4:	1ad3      	subs	r3, r2, r3
 80007c6:	465a      	mov	r2, fp
 80007c8:	0001      	movs	r1, r0
 80007ca:	40da      	lsrs	r2, r3
 80007cc:	465e      	mov	r6, fp
 80007ce:	3908      	subs	r1, #8
 80007d0:	408f      	lsls	r7, r1
 80007d2:	0013      	movs	r3, r2
 80007d4:	408e      	lsls	r6, r1
 80007d6:	433b      	orrs	r3, r7
 80007d8:	9301      	str	r3, [sp, #4]
 80007da:	4b9c      	ldr	r3, [pc, #624]	; (8000a4c <__aeabi_dmul+0x3b0>)
 80007dc:	2700      	movs	r7, #0
 80007de:	1a1b      	subs	r3, r3, r0
 80007e0:	4699      	mov	r9, r3
 80007e2:	2300      	movs	r3, #0
 80007e4:	469b      	mov	fp, r3
 80007e6:	e77d      	b.n	80006e4 <__aeabi_dmul+0x48>
 80007e8:	4641      	mov	r1, r8
 80007ea:	4653      	mov	r3, sl
 80007ec:	430b      	orrs	r3, r1
 80007ee:	4993      	ldr	r1, [pc, #588]	; (8000a3c <__aeabi_dmul+0x3a0>)
 80007f0:	468c      	mov	ip, r1
 80007f2:	44e1      	add	r9, ip
 80007f4:	2b00      	cmp	r3, #0
 80007f6:	d000      	beq.n	80007fa <__aeabi_dmul+0x15e>
 80007f8:	e11a      	b.n	8000a30 <__aeabi_dmul+0x394>
 80007fa:	2202      	movs	r2, #2
 80007fc:	2002      	movs	r0, #2
 80007fe:	4317      	orrs	r7, r2
 8000800:	2200      	movs	r2, #0
 8000802:	e78c      	b.n	800071e <__aeabi_dmul+0x82>
 8000804:	4313      	orrs	r3, r2
 8000806:	d100      	bne.n	800080a <__aeabi_dmul+0x16e>
 8000808:	e10d      	b.n	8000a26 <__aeabi_dmul+0x38a>
 800080a:	4643      	mov	r3, r8
 800080c:	2b00      	cmp	r3, #0
 800080e:	d100      	bne.n	8000812 <__aeabi_dmul+0x176>
 8000810:	e181      	b.n	8000b16 <__aeabi_dmul+0x47a>
 8000812:	4640      	mov	r0, r8
 8000814:	f000 fa72 	bl	8000cfc <__clzsi2>
 8000818:	0002      	movs	r2, r0
 800081a:	3a0b      	subs	r2, #11
 800081c:	2a1c      	cmp	r2, #28
 800081e:	dd00      	ble.n	8000822 <__aeabi_dmul+0x186>
 8000820:	e172      	b.n	8000b08 <__aeabi_dmul+0x46c>
 8000822:	0001      	movs	r1, r0
 8000824:	4643      	mov	r3, r8
 8000826:	3908      	subs	r1, #8
 8000828:	408b      	lsls	r3, r1
 800082a:	4698      	mov	r8, r3
 800082c:	231d      	movs	r3, #29
 800082e:	1a9a      	subs	r2, r3, r2
 8000830:	4653      	mov	r3, sl
 8000832:	40d3      	lsrs	r3, r2
 8000834:	001a      	movs	r2, r3
 8000836:	4643      	mov	r3, r8
 8000838:	4313      	orrs	r3, r2
 800083a:	4652      	mov	r2, sl
 800083c:	408a      	lsls	r2, r1
 800083e:	4649      	mov	r1, r9
 8000840:	1a08      	subs	r0, r1, r0
 8000842:	4982      	ldr	r1, [pc, #520]	; (8000a4c <__aeabi_dmul+0x3b0>)
 8000844:	4689      	mov	r9, r1
 8000846:	4481      	add	r9, r0
 8000848:	2000      	movs	r0, #0
 800084a:	e768      	b.n	800071e <__aeabi_dmul+0x82>
 800084c:	4b7b      	ldr	r3, [pc, #492]	; (8000a3c <__aeabi_dmul+0x3a0>)
 800084e:	2700      	movs	r7, #0
 8000850:	2600      	movs	r6, #0
 8000852:	e78e      	b.n	8000772 <__aeabi_dmul+0xd6>
 8000854:	0c14      	lsrs	r4, r2, #16
 8000856:	0412      	lsls	r2, r2, #16
 8000858:	0c12      	lsrs	r2, r2, #16
 800085a:	0011      	movs	r1, r2
 800085c:	0c37      	lsrs	r7, r6, #16
 800085e:	0436      	lsls	r6, r6, #16
 8000860:	0c35      	lsrs	r5, r6, #16
 8000862:	4379      	muls	r1, r7
 8000864:	0028      	movs	r0, r5
 8000866:	468c      	mov	ip, r1
 8000868:	002e      	movs	r6, r5
 800086a:	4360      	muls	r0, r4
 800086c:	4460      	add	r0, ip
 800086e:	4683      	mov	fp, r0
 8000870:	4356      	muls	r6, r2
 8000872:	0021      	movs	r1, r4
 8000874:	0c30      	lsrs	r0, r6, #16
 8000876:	4680      	mov	r8, r0
 8000878:	4658      	mov	r0, fp
 800087a:	4379      	muls	r1, r7
 800087c:	4440      	add	r0, r8
 800087e:	9102      	str	r1, [sp, #8]
 8000880:	4584      	cmp	ip, r0
 8000882:	d906      	bls.n	8000892 <__aeabi_dmul+0x1f6>
 8000884:	4688      	mov	r8, r1
 8000886:	2180      	movs	r1, #128	; 0x80
 8000888:	0249      	lsls	r1, r1, #9
 800088a:	468c      	mov	ip, r1
 800088c:	44e0      	add	r8, ip
 800088e:	4641      	mov	r1, r8
 8000890:	9102      	str	r1, [sp, #8]
 8000892:	0436      	lsls	r6, r6, #16
 8000894:	0c01      	lsrs	r1, r0, #16
 8000896:	0c36      	lsrs	r6, r6, #16
 8000898:	0400      	lsls	r0, r0, #16
 800089a:	468b      	mov	fp, r1
 800089c:	1981      	adds	r1, r0, r6
 800089e:	0c1e      	lsrs	r6, r3, #16
 80008a0:	041b      	lsls	r3, r3, #16
 80008a2:	0c1b      	lsrs	r3, r3, #16
 80008a4:	9103      	str	r1, [sp, #12]
 80008a6:	0019      	movs	r1, r3
 80008a8:	4379      	muls	r1, r7
 80008aa:	468c      	mov	ip, r1
 80008ac:	0028      	movs	r0, r5
 80008ae:	4375      	muls	r5, r6
 80008b0:	4465      	add	r5, ip
 80008b2:	46a8      	mov	r8, r5
 80008b4:	4358      	muls	r0, r3
 80008b6:	0c05      	lsrs	r5, r0, #16
 80008b8:	4445      	add	r5, r8
 80008ba:	4377      	muls	r7, r6
 80008bc:	42a9      	cmp	r1, r5
 80008be:	d903      	bls.n	80008c8 <__aeabi_dmul+0x22c>
 80008c0:	2180      	movs	r1, #128	; 0x80
 80008c2:	0249      	lsls	r1, r1, #9
 80008c4:	468c      	mov	ip, r1
 80008c6:	4467      	add	r7, ip
 80008c8:	0c29      	lsrs	r1, r5, #16
 80008ca:	468c      	mov	ip, r1
 80008cc:	0039      	movs	r1, r7
 80008ce:	0400      	lsls	r0, r0, #16
 80008d0:	0c00      	lsrs	r0, r0, #16
 80008d2:	042d      	lsls	r5, r5, #16
 80008d4:	182d      	adds	r5, r5, r0
 80008d6:	4461      	add	r1, ip
 80008d8:	44ab      	add	fp, r5
 80008da:	9105      	str	r1, [sp, #20]
 80008dc:	4659      	mov	r1, fp
 80008de:	9104      	str	r1, [sp, #16]
 80008e0:	9901      	ldr	r1, [sp, #4]
 80008e2:	040f      	lsls	r7, r1, #16
 80008e4:	0c3f      	lsrs	r7, r7, #16
 80008e6:	0c08      	lsrs	r0, r1, #16
 80008e8:	0039      	movs	r1, r7
 80008ea:	4351      	muls	r1, r2
 80008ec:	4342      	muls	r2, r0
 80008ee:	4690      	mov	r8, r2
 80008f0:	0002      	movs	r2, r0
 80008f2:	468c      	mov	ip, r1
 80008f4:	0c09      	lsrs	r1, r1, #16
 80008f6:	468b      	mov	fp, r1
 80008f8:	4362      	muls	r2, r4
 80008fa:	437c      	muls	r4, r7
 80008fc:	4444      	add	r4, r8
 80008fe:	445c      	add	r4, fp
 8000900:	45a0      	cmp	r8, r4
 8000902:	d903      	bls.n	800090c <__aeabi_dmul+0x270>
 8000904:	2180      	movs	r1, #128	; 0x80
 8000906:	0249      	lsls	r1, r1, #9
 8000908:	4688      	mov	r8, r1
 800090a:	4442      	add	r2, r8
 800090c:	0c21      	lsrs	r1, r4, #16
 800090e:	4688      	mov	r8, r1
 8000910:	4661      	mov	r1, ip
 8000912:	0409      	lsls	r1, r1, #16
 8000914:	0c09      	lsrs	r1, r1, #16
 8000916:	468c      	mov	ip, r1
 8000918:	0039      	movs	r1, r7
 800091a:	4359      	muls	r1, r3
 800091c:	4343      	muls	r3, r0
 800091e:	4370      	muls	r0, r6
 8000920:	437e      	muls	r6, r7
 8000922:	0c0f      	lsrs	r7, r1, #16
 8000924:	18f6      	adds	r6, r6, r3
 8000926:	0424      	lsls	r4, r4, #16
 8000928:	19be      	adds	r6, r7, r6
 800092a:	4464      	add	r4, ip
 800092c:	4442      	add	r2, r8
 800092e:	468c      	mov	ip, r1
 8000930:	42b3      	cmp	r3, r6
 8000932:	d903      	bls.n	800093c <__aeabi_dmul+0x2a0>
 8000934:	2380      	movs	r3, #128	; 0x80
 8000936:	025b      	lsls	r3, r3, #9
 8000938:	4698      	mov	r8, r3
 800093a:	4440      	add	r0, r8
 800093c:	9b02      	ldr	r3, [sp, #8]
 800093e:	4661      	mov	r1, ip
 8000940:	4698      	mov	r8, r3
 8000942:	9b04      	ldr	r3, [sp, #16]
 8000944:	0437      	lsls	r7, r6, #16
 8000946:	4443      	add	r3, r8
 8000948:	469b      	mov	fp, r3
 800094a:	45ab      	cmp	fp, r5
 800094c:	41ad      	sbcs	r5, r5
 800094e:	426b      	negs	r3, r5
 8000950:	040d      	lsls	r5, r1, #16
 8000952:	9905      	ldr	r1, [sp, #20]
 8000954:	0c2d      	lsrs	r5, r5, #16
 8000956:	468c      	mov	ip, r1
 8000958:	197f      	adds	r7, r7, r5
 800095a:	4467      	add	r7, ip
 800095c:	18fd      	adds	r5, r7, r3
 800095e:	46a8      	mov	r8, r5
 8000960:	465d      	mov	r5, fp
 8000962:	192d      	adds	r5, r5, r4
 8000964:	42a5      	cmp	r5, r4
 8000966:	41a4      	sbcs	r4, r4
 8000968:	4693      	mov	fp, r2
 800096a:	4264      	negs	r4, r4
 800096c:	46a4      	mov	ip, r4
 800096e:	44c3      	add	fp, r8
 8000970:	44dc      	add	ip, fp
 8000972:	428f      	cmp	r7, r1
 8000974:	41bf      	sbcs	r7, r7
 8000976:	4598      	cmp	r8, r3
 8000978:	419b      	sbcs	r3, r3
 800097a:	4593      	cmp	fp, r2
 800097c:	4192      	sbcs	r2, r2
 800097e:	45a4      	cmp	ip, r4
 8000980:	41a4      	sbcs	r4, r4
 8000982:	425b      	negs	r3, r3
 8000984:	427f      	negs	r7, r7
 8000986:	431f      	orrs	r7, r3
 8000988:	0c36      	lsrs	r6, r6, #16
 800098a:	4252      	negs	r2, r2
 800098c:	4264      	negs	r4, r4
 800098e:	19bf      	adds	r7, r7, r6
 8000990:	4322      	orrs	r2, r4
 8000992:	18bf      	adds	r7, r7, r2
 8000994:	4662      	mov	r2, ip
 8000996:	1838      	adds	r0, r7, r0
 8000998:	0243      	lsls	r3, r0, #9
 800099a:	0dd2      	lsrs	r2, r2, #23
 800099c:	9903      	ldr	r1, [sp, #12]
 800099e:	4313      	orrs	r3, r2
 80009a0:	026a      	lsls	r2, r5, #9
 80009a2:	430a      	orrs	r2, r1
 80009a4:	1e50      	subs	r0, r2, #1
 80009a6:	4182      	sbcs	r2, r0
 80009a8:	4661      	mov	r1, ip
 80009aa:	0ded      	lsrs	r5, r5, #23
 80009ac:	432a      	orrs	r2, r5
 80009ae:	024e      	lsls	r6, r1, #9
 80009b0:	4332      	orrs	r2, r6
 80009b2:	01d9      	lsls	r1, r3, #7
 80009b4:	d400      	bmi.n	80009b8 <__aeabi_dmul+0x31c>
 80009b6:	e0b3      	b.n	8000b20 <__aeabi_dmul+0x484>
 80009b8:	2601      	movs	r6, #1
 80009ba:	0850      	lsrs	r0, r2, #1
 80009bc:	4032      	ands	r2, r6
 80009be:	4302      	orrs	r2, r0
 80009c0:	07de      	lsls	r6, r3, #31
 80009c2:	4332      	orrs	r2, r6
 80009c4:	085b      	lsrs	r3, r3, #1
 80009c6:	4c22      	ldr	r4, [pc, #136]	; (8000a50 <__aeabi_dmul+0x3b4>)
 80009c8:	4454      	add	r4, sl
 80009ca:	2c00      	cmp	r4, #0
 80009cc:	dd62      	ble.n	8000a94 <__aeabi_dmul+0x3f8>
 80009ce:	0751      	lsls	r1, r2, #29
 80009d0:	d009      	beq.n	80009e6 <__aeabi_dmul+0x34a>
 80009d2:	200f      	movs	r0, #15
 80009d4:	4010      	ands	r0, r2
 80009d6:	2804      	cmp	r0, #4
 80009d8:	d005      	beq.n	80009e6 <__aeabi_dmul+0x34a>
 80009da:	1d10      	adds	r0, r2, #4
 80009dc:	4290      	cmp	r0, r2
 80009de:	4192      	sbcs	r2, r2
 80009e0:	4252      	negs	r2, r2
 80009e2:	189b      	adds	r3, r3, r2
 80009e4:	0002      	movs	r2, r0
 80009e6:	01d9      	lsls	r1, r3, #7
 80009e8:	d504      	bpl.n	80009f4 <__aeabi_dmul+0x358>
 80009ea:	2480      	movs	r4, #128	; 0x80
 80009ec:	4819      	ldr	r0, [pc, #100]	; (8000a54 <__aeabi_dmul+0x3b8>)
 80009ee:	00e4      	lsls	r4, r4, #3
 80009f0:	4003      	ands	r3, r0
 80009f2:	4454      	add	r4, sl
 80009f4:	4818      	ldr	r0, [pc, #96]	; (8000a58 <__aeabi_dmul+0x3bc>)
 80009f6:	4284      	cmp	r4, r0
 80009f8:	dd00      	ble.n	80009fc <__aeabi_dmul+0x360>
 80009fa:	e727      	b.n	800084c <__aeabi_dmul+0x1b0>
 80009fc:	075e      	lsls	r6, r3, #29
 80009fe:	025b      	lsls	r3, r3, #9
 8000a00:	08d2      	lsrs	r2, r2, #3
 8000a02:	0b1f      	lsrs	r7, r3, #12
 8000a04:	0563      	lsls	r3, r4, #21
 8000a06:	4316      	orrs	r6, r2
 8000a08:	0d5b      	lsrs	r3, r3, #21
 8000a0a:	e6b2      	b.n	8000772 <__aeabi_dmul+0xd6>
 8000a0c:	2300      	movs	r3, #0
 8000a0e:	4699      	mov	r9, r3
 8000a10:	3301      	adds	r3, #1
 8000a12:	2704      	movs	r7, #4
 8000a14:	2600      	movs	r6, #0
 8000a16:	469b      	mov	fp, r3
 8000a18:	e664      	b.n	80006e4 <__aeabi_dmul+0x48>
 8000a1a:	2303      	movs	r3, #3
 8000a1c:	9701      	str	r7, [sp, #4]
 8000a1e:	4681      	mov	r9, r0
 8000a20:	270c      	movs	r7, #12
 8000a22:	469b      	mov	fp, r3
 8000a24:	e65e      	b.n	80006e4 <__aeabi_dmul+0x48>
 8000a26:	2201      	movs	r2, #1
 8000a28:	2001      	movs	r0, #1
 8000a2a:	4317      	orrs	r7, r2
 8000a2c:	2200      	movs	r2, #0
 8000a2e:	e676      	b.n	800071e <__aeabi_dmul+0x82>
 8000a30:	2303      	movs	r3, #3
 8000a32:	2003      	movs	r0, #3
 8000a34:	431f      	orrs	r7, r3
 8000a36:	4643      	mov	r3, r8
 8000a38:	e671      	b.n	800071e <__aeabi_dmul+0x82>
 8000a3a:	46c0      	nop			; (mov r8, r8)
 8000a3c:	000007ff 	.word	0x000007ff
 8000a40:	fffffc01 	.word	0xfffffc01
 8000a44:	080036d4 	.word	0x080036d4
 8000a48:	800fffff 	.word	0x800fffff
 8000a4c:	fffffc0d 	.word	0xfffffc0d
 8000a50:	000003ff 	.word	0x000003ff
 8000a54:	feffffff 	.word	0xfeffffff
 8000a58:	000007fe 	.word	0x000007fe
 8000a5c:	2300      	movs	r3, #0
 8000a5e:	2780      	movs	r7, #128	; 0x80
 8000a60:	9300      	str	r3, [sp, #0]
 8000a62:	033f      	lsls	r7, r7, #12
 8000a64:	2600      	movs	r6, #0
 8000a66:	4b43      	ldr	r3, [pc, #268]	; (8000b74 <__aeabi_dmul+0x4d8>)
 8000a68:	e683      	b.n	8000772 <__aeabi_dmul+0xd6>
 8000a6a:	9b01      	ldr	r3, [sp, #4]
 8000a6c:	0032      	movs	r2, r6
 8000a6e:	46a4      	mov	ip, r4
 8000a70:	4658      	mov	r0, fp
 8000a72:	e670      	b.n	8000756 <__aeabi_dmul+0xba>
 8000a74:	46ac      	mov	ip, r5
 8000a76:	e66e      	b.n	8000756 <__aeabi_dmul+0xba>
 8000a78:	2780      	movs	r7, #128	; 0x80
 8000a7a:	9901      	ldr	r1, [sp, #4]
 8000a7c:	033f      	lsls	r7, r7, #12
 8000a7e:	4239      	tst	r1, r7
 8000a80:	d02d      	beq.n	8000ade <__aeabi_dmul+0x442>
 8000a82:	423b      	tst	r3, r7
 8000a84:	d12b      	bne.n	8000ade <__aeabi_dmul+0x442>
 8000a86:	431f      	orrs	r7, r3
 8000a88:	033f      	lsls	r7, r7, #12
 8000a8a:	0b3f      	lsrs	r7, r7, #12
 8000a8c:	9500      	str	r5, [sp, #0]
 8000a8e:	0016      	movs	r6, r2
 8000a90:	4b38      	ldr	r3, [pc, #224]	; (8000b74 <__aeabi_dmul+0x4d8>)
 8000a92:	e66e      	b.n	8000772 <__aeabi_dmul+0xd6>
 8000a94:	2501      	movs	r5, #1
 8000a96:	1b2d      	subs	r5, r5, r4
 8000a98:	2d38      	cmp	r5, #56	; 0x38
 8000a9a:	dd00      	ble.n	8000a9e <__aeabi_dmul+0x402>
 8000a9c:	e666      	b.n	800076c <__aeabi_dmul+0xd0>
 8000a9e:	2d1f      	cmp	r5, #31
 8000aa0:	dc40      	bgt.n	8000b24 <__aeabi_dmul+0x488>
 8000aa2:	4835      	ldr	r0, [pc, #212]	; (8000b78 <__aeabi_dmul+0x4dc>)
 8000aa4:	001c      	movs	r4, r3
 8000aa6:	4450      	add	r0, sl
 8000aa8:	0016      	movs	r6, r2
 8000aaa:	4082      	lsls	r2, r0
 8000aac:	4084      	lsls	r4, r0
 8000aae:	40ee      	lsrs	r6, r5
 8000ab0:	1e50      	subs	r0, r2, #1
 8000ab2:	4182      	sbcs	r2, r0
 8000ab4:	4334      	orrs	r4, r6
 8000ab6:	4314      	orrs	r4, r2
 8000ab8:	40eb      	lsrs	r3, r5
 8000aba:	0762      	lsls	r2, r4, #29
 8000abc:	d009      	beq.n	8000ad2 <__aeabi_dmul+0x436>
 8000abe:	220f      	movs	r2, #15
 8000ac0:	4022      	ands	r2, r4
 8000ac2:	2a04      	cmp	r2, #4
 8000ac4:	d005      	beq.n	8000ad2 <__aeabi_dmul+0x436>
 8000ac6:	0022      	movs	r2, r4
 8000ac8:	1d14      	adds	r4, r2, #4
 8000aca:	4294      	cmp	r4, r2
 8000acc:	4180      	sbcs	r0, r0
 8000ace:	4240      	negs	r0, r0
 8000ad0:	181b      	adds	r3, r3, r0
 8000ad2:	021a      	lsls	r2, r3, #8
 8000ad4:	d53e      	bpl.n	8000b54 <__aeabi_dmul+0x4b8>
 8000ad6:	2301      	movs	r3, #1
 8000ad8:	2700      	movs	r7, #0
 8000ada:	2600      	movs	r6, #0
 8000adc:	e649      	b.n	8000772 <__aeabi_dmul+0xd6>
 8000ade:	2780      	movs	r7, #128	; 0x80
 8000ae0:	9b01      	ldr	r3, [sp, #4]
 8000ae2:	033f      	lsls	r7, r7, #12
 8000ae4:	431f      	orrs	r7, r3
 8000ae6:	033f      	lsls	r7, r7, #12
 8000ae8:	0b3f      	lsrs	r7, r7, #12
 8000aea:	9400      	str	r4, [sp, #0]
 8000aec:	4b21      	ldr	r3, [pc, #132]	; (8000b74 <__aeabi_dmul+0x4d8>)
 8000aee:	e640      	b.n	8000772 <__aeabi_dmul+0xd6>
 8000af0:	0003      	movs	r3, r0
 8000af2:	465a      	mov	r2, fp
 8000af4:	3b28      	subs	r3, #40	; 0x28
 8000af6:	409a      	lsls	r2, r3
 8000af8:	2600      	movs	r6, #0
 8000afa:	9201      	str	r2, [sp, #4]
 8000afc:	e66d      	b.n	80007da <__aeabi_dmul+0x13e>
 8000afe:	4658      	mov	r0, fp
 8000b00:	f000 f8fc 	bl	8000cfc <__clzsi2>
 8000b04:	3020      	adds	r0, #32
 8000b06:	e657      	b.n	80007b8 <__aeabi_dmul+0x11c>
 8000b08:	0003      	movs	r3, r0
 8000b0a:	4652      	mov	r2, sl
 8000b0c:	3b28      	subs	r3, #40	; 0x28
 8000b0e:	409a      	lsls	r2, r3
 8000b10:	0013      	movs	r3, r2
 8000b12:	2200      	movs	r2, #0
 8000b14:	e693      	b.n	800083e <__aeabi_dmul+0x1a2>
 8000b16:	4650      	mov	r0, sl
 8000b18:	f000 f8f0 	bl	8000cfc <__clzsi2>
 8000b1c:	3020      	adds	r0, #32
 8000b1e:	e67b      	b.n	8000818 <__aeabi_dmul+0x17c>
 8000b20:	46ca      	mov	sl, r9
 8000b22:	e750      	b.n	80009c6 <__aeabi_dmul+0x32a>
 8000b24:	201f      	movs	r0, #31
 8000b26:	001e      	movs	r6, r3
 8000b28:	4240      	negs	r0, r0
 8000b2a:	1b04      	subs	r4, r0, r4
 8000b2c:	40e6      	lsrs	r6, r4
 8000b2e:	2d20      	cmp	r5, #32
 8000b30:	d003      	beq.n	8000b3a <__aeabi_dmul+0x49e>
 8000b32:	4c12      	ldr	r4, [pc, #72]	; (8000b7c <__aeabi_dmul+0x4e0>)
 8000b34:	4454      	add	r4, sl
 8000b36:	40a3      	lsls	r3, r4
 8000b38:	431a      	orrs	r2, r3
 8000b3a:	1e50      	subs	r0, r2, #1
 8000b3c:	4182      	sbcs	r2, r0
 8000b3e:	4332      	orrs	r2, r6
 8000b40:	2607      	movs	r6, #7
 8000b42:	2700      	movs	r7, #0
 8000b44:	4016      	ands	r6, r2
 8000b46:	d009      	beq.n	8000b5c <__aeabi_dmul+0x4c0>
 8000b48:	200f      	movs	r0, #15
 8000b4a:	2300      	movs	r3, #0
 8000b4c:	4010      	ands	r0, r2
 8000b4e:	0014      	movs	r4, r2
 8000b50:	2804      	cmp	r0, #4
 8000b52:	d1b9      	bne.n	8000ac8 <__aeabi_dmul+0x42c>
 8000b54:	0022      	movs	r2, r4
 8000b56:	075e      	lsls	r6, r3, #29
 8000b58:	025b      	lsls	r3, r3, #9
 8000b5a:	0b1f      	lsrs	r7, r3, #12
 8000b5c:	08d2      	lsrs	r2, r2, #3
 8000b5e:	4316      	orrs	r6, r2
 8000b60:	2300      	movs	r3, #0
 8000b62:	e606      	b.n	8000772 <__aeabi_dmul+0xd6>
 8000b64:	2780      	movs	r7, #128	; 0x80
 8000b66:	033f      	lsls	r7, r7, #12
 8000b68:	431f      	orrs	r7, r3
 8000b6a:	033f      	lsls	r7, r7, #12
 8000b6c:	0b3f      	lsrs	r7, r7, #12
 8000b6e:	0016      	movs	r6, r2
 8000b70:	4b00      	ldr	r3, [pc, #0]	; (8000b74 <__aeabi_dmul+0x4d8>)
 8000b72:	e5fe      	b.n	8000772 <__aeabi_dmul+0xd6>
 8000b74:	000007ff 	.word	0x000007ff
 8000b78:	0000041e 	.word	0x0000041e
 8000b7c:	0000043e 	.word	0x0000043e

08000b80 <__aeabi_i2d>:
 8000b80:	b570      	push	{r4, r5, r6, lr}
 8000b82:	2800      	cmp	r0, #0
 8000b84:	d02d      	beq.n	8000be2 <__aeabi_i2d+0x62>
 8000b86:	17c3      	asrs	r3, r0, #31
 8000b88:	18c5      	adds	r5, r0, r3
 8000b8a:	405d      	eors	r5, r3
 8000b8c:	0fc4      	lsrs	r4, r0, #31
 8000b8e:	0028      	movs	r0, r5
 8000b90:	f000 f8b4 	bl	8000cfc <__clzsi2>
 8000b94:	4b15      	ldr	r3, [pc, #84]	; (8000bec <__aeabi_i2d+0x6c>)
 8000b96:	1a1b      	subs	r3, r3, r0
 8000b98:	055b      	lsls	r3, r3, #21
 8000b9a:	0d5b      	lsrs	r3, r3, #21
 8000b9c:	280a      	cmp	r0, #10
 8000b9e:	dd15      	ble.n	8000bcc <__aeabi_i2d+0x4c>
 8000ba0:	380b      	subs	r0, #11
 8000ba2:	4085      	lsls	r5, r0
 8000ba4:	2200      	movs	r2, #0
 8000ba6:	032d      	lsls	r5, r5, #12
 8000ba8:	0b2d      	lsrs	r5, r5, #12
 8000baa:	2100      	movs	r1, #0
 8000bac:	0010      	movs	r0, r2
 8000bae:	032d      	lsls	r5, r5, #12
 8000bb0:	0d0a      	lsrs	r2, r1, #20
 8000bb2:	0b2d      	lsrs	r5, r5, #12
 8000bb4:	0512      	lsls	r2, r2, #20
 8000bb6:	432a      	orrs	r2, r5
 8000bb8:	4d0d      	ldr	r5, [pc, #52]	; (8000bf0 <__aeabi_i2d+0x70>)
 8000bba:	051b      	lsls	r3, r3, #20
 8000bbc:	402a      	ands	r2, r5
 8000bbe:	4313      	orrs	r3, r2
 8000bc0:	005b      	lsls	r3, r3, #1
 8000bc2:	07e4      	lsls	r4, r4, #31
 8000bc4:	085b      	lsrs	r3, r3, #1
 8000bc6:	4323      	orrs	r3, r4
 8000bc8:	0019      	movs	r1, r3
 8000bca:	bd70      	pop	{r4, r5, r6, pc}
 8000bcc:	0002      	movs	r2, r0
 8000bce:	0029      	movs	r1, r5
 8000bd0:	3215      	adds	r2, #21
 8000bd2:	4091      	lsls	r1, r2
 8000bd4:	000a      	movs	r2, r1
 8000bd6:	210b      	movs	r1, #11
 8000bd8:	1a08      	subs	r0, r1, r0
 8000bda:	40c5      	lsrs	r5, r0
 8000bdc:	032d      	lsls	r5, r5, #12
 8000bde:	0b2d      	lsrs	r5, r5, #12
 8000be0:	e7e3      	b.n	8000baa <__aeabi_i2d+0x2a>
 8000be2:	2400      	movs	r4, #0
 8000be4:	2300      	movs	r3, #0
 8000be6:	2500      	movs	r5, #0
 8000be8:	2200      	movs	r2, #0
 8000bea:	e7de      	b.n	8000baa <__aeabi_i2d+0x2a>
 8000bec:	0000041e 	.word	0x0000041e
 8000bf0:	800fffff 	.word	0x800fffff

08000bf4 <__aeabi_d2f>:
 8000bf4:	b5f0      	push	{r4, r5, r6, r7, lr}
 8000bf6:	004c      	lsls	r4, r1, #1
 8000bf8:	0d64      	lsrs	r4, r4, #21
 8000bfa:	030b      	lsls	r3, r1, #12
 8000bfc:	1c62      	adds	r2, r4, #1
 8000bfe:	0a5b      	lsrs	r3, r3, #9
 8000c00:	0f46      	lsrs	r6, r0, #29
 8000c02:	0552      	lsls	r2, r2, #21
 8000c04:	0fc9      	lsrs	r1, r1, #31
 8000c06:	431e      	orrs	r6, r3
 8000c08:	00c5      	lsls	r5, r0, #3
 8000c0a:	0d52      	lsrs	r2, r2, #21
 8000c0c:	2a01      	cmp	r2, #1
 8000c0e:	dd29      	ble.n	8000c64 <__aeabi_d2f+0x70>
 8000c10:	4b37      	ldr	r3, [pc, #220]	; (8000cf0 <__aeabi_d2f+0xfc>)
 8000c12:	18e7      	adds	r7, r4, r3
 8000c14:	2ffe      	cmp	r7, #254	; 0xfe
 8000c16:	dc1c      	bgt.n	8000c52 <__aeabi_d2f+0x5e>
 8000c18:	2f00      	cmp	r7, #0
 8000c1a:	dd3b      	ble.n	8000c94 <__aeabi_d2f+0xa0>
 8000c1c:	0180      	lsls	r0, r0, #6
 8000c1e:	1e43      	subs	r3, r0, #1
 8000c20:	4198      	sbcs	r0, r3
 8000c22:	2207      	movs	r2, #7
 8000c24:	00f3      	lsls	r3, r6, #3
 8000c26:	0f6d      	lsrs	r5, r5, #29
 8000c28:	4303      	orrs	r3, r0
 8000c2a:	432b      	orrs	r3, r5
 8000c2c:	401a      	ands	r2, r3
 8000c2e:	2a00      	cmp	r2, #0
 8000c30:	d004      	beq.n	8000c3c <__aeabi_d2f+0x48>
 8000c32:	220f      	movs	r2, #15
 8000c34:	401a      	ands	r2, r3
 8000c36:	2a04      	cmp	r2, #4
 8000c38:	d000      	beq.n	8000c3c <__aeabi_d2f+0x48>
 8000c3a:	3304      	adds	r3, #4
 8000c3c:	2280      	movs	r2, #128	; 0x80
 8000c3e:	04d2      	lsls	r2, r2, #19
 8000c40:	401a      	ands	r2, r3
 8000c42:	d024      	beq.n	8000c8e <__aeabi_d2f+0x9a>
 8000c44:	3701      	adds	r7, #1
 8000c46:	b2fa      	uxtb	r2, r7
 8000c48:	2fff      	cmp	r7, #255	; 0xff
 8000c4a:	d002      	beq.n	8000c52 <__aeabi_d2f+0x5e>
 8000c4c:	019b      	lsls	r3, r3, #6
 8000c4e:	0a58      	lsrs	r0, r3, #9
 8000c50:	e001      	b.n	8000c56 <__aeabi_d2f+0x62>
 8000c52:	22ff      	movs	r2, #255	; 0xff
 8000c54:	2000      	movs	r0, #0
 8000c56:	0240      	lsls	r0, r0, #9
 8000c58:	05d2      	lsls	r2, r2, #23
 8000c5a:	0a40      	lsrs	r0, r0, #9
 8000c5c:	07c9      	lsls	r1, r1, #31
 8000c5e:	4310      	orrs	r0, r2
 8000c60:	4308      	orrs	r0, r1
 8000c62:	bdf0      	pop	{r4, r5, r6, r7, pc}
 8000c64:	4335      	orrs	r5, r6
 8000c66:	2c00      	cmp	r4, #0
 8000c68:	d104      	bne.n	8000c74 <__aeabi_d2f+0x80>
 8000c6a:	2d00      	cmp	r5, #0
 8000c6c:	d10a      	bne.n	8000c84 <__aeabi_d2f+0x90>
 8000c6e:	2200      	movs	r2, #0
 8000c70:	2000      	movs	r0, #0
 8000c72:	e7f0      	b.n	8000c56 <__aeabi_d2f+0x62>
 8000c74:	2d00      	cmp	r5, #0
 8000c76:	d0ec      	beq.n	8000c52 <__aeabi_d2f+0x5e>
 8000c78:	2080      	movs	r0, #128	; 0x80
 8000c7a:	03c0      	lsls	r0, r0, #15
 8000c7c:	4330      	orrs	r0, r6
 8000c7e:	22ff      	movs	r2, #255	; 0xff
 8000c80:	e7e9      	b.n	8000c56 <__aeabi_d2f+0x62>
 8000c82:	2400      	movs	r4, #0
 8000c84:	2300      	movs	r3, #0
 8000c86:	025b      	lsls	r3, r3, #9
 8000c88:	0a58      	lsrs	r0, r3, #9
 8000c8a:	b2e2      	uxtb	r2, r4
 8000c8c:	e7e3      	b.n	8000c56 <__aeabi_d2f+0x62>
 8000c8e:	08db      	lsrs	r3, r3, #3
 8000c90:	003c      	movs	r4, r7
 8000c92:	e7f8      	b.n	8000c86 <__aeabi_d2f+0x92>
 8000c94:	003b      	movs	r3, r7
 8000c96:	3317      	adds	r3, #23
 8000c98:	dbf3      	blt.n	8000c82 <__aeabi_d2f+0x8e>
 8000c9a:	2380      	movs	r3, #128	; 0x80
 8000c9c:	041b      	lsls	r3, r3, #16
 8000c9e:	4333      	orrs	r3, r6
 8000ca0:	261e      	movs	r6, #30
 8000ca2:	1bf6      	subs	r6, r6, r7
 8000ca4:	2e1f      	cmp	r6, #31
 8000ca6:	dd14      	ble.n	8000cd2 <__aeabi_d2f+0xde>
 8000ca8:	2202      	movs	r2, #2
 8000caa:	4252      	negs	r2, r2
 8000cac:	1bd7      	subs	r7, r2, r7
 8000cae:	001a      	movs	r2, r3
 8000cb0:	40fa      	lsrs	r2, r7
 8000cb2:	0017      	movs	r7, r2
 8000cb4:	2e20      	cmp	r6, #32
 8000cb6:	d004      	beq.n	8000cc2 <__aeabi_d2f+0xce>
 8000cb8:	4a0e      	ldr	r2, [pc, #56]	; (8000cf4 <__aeabi_d2f+0x100>)
 8000cba:	4694      	mov	ip, r2
 8000cbc:	4464      	add	r4, ip
 8000cbe:	40a3      	lsls	r3, r4
 8000cc0:	431d      	orrs	r5, r3
 8000cc2:	002b      	movs	r3, r5
 8000cc4:	1e5d      	subs	r5, r3, #1
 8000cc6:	41ab      	sbcs	r3, r5
 8000cc8:	2207      	movs	r2, #7
 8000cca:	433b      	orrs	r3, r7
 8000ccc:	401a      	ands	r2, r3
 8000cce:	2700      	movs	r7, #0
 8000cd0:	e7ad      	b.n	8000c2e <__aeabi_d2f+0x3a>
 8000cd2:	4a09      	ldr	r2, [pc, #36]	; (8000cf8 <__aeabi_d2f+0x104>)
 8000cd4:	0028      	movs	r0, r5
 8000cd6:	18a2      	adds	r2, r4, r2
 8000cd8:	4095      	lsls	r5, r2
 8000cda:	4093      	lsls	r3, r2
 8000cdc:	1e6c      	subs	r4, r5, #1
 8000cde:	41a5      	sbcs	r5, r4
 8000ce0:	40f0      	lsrs	r0, r6
 8000ce2:	2207      	movs	r2, #7
 8000ce4:	432b      	orrs	r3, r5
 8000ce6:	4303      	orrs	r3, r0
 8000ce8:	401a      	ands	r2, r3
 8000cea:	2700      	movs	r7, #0
 8000cec:	e79f      	b.n	8000c2e <__aeabi_d2f+0x3a>
 8000cee:	46c0      	nop			; (mov r8, r8)
 8000cf0:	fffffc80 	.word	0xfffffc80
 8000cf4:	fffffca2 	.word	0xfffffca2
 8000cf8:	fffffc82 	.word	0xfffffc82

08000cfc <__clzsi2>:
 8000cfc:	211c      	movs	r1, #28
 8000cfe:	2301      	movs	r3, #1
 8000d00:	041b      	lsls	r3, r3, #16
 8000d02:	4298      	cmp	r0, r3
 8000d04:	d301      	bcc.n	8000d0a <__clzsi2+0xe>
 8000d06:	0c00      	lsrs	r0, r0, #16
 8000d08:	3910      	subs	r1, #16
 8000d0a:	0a1b      	lsrs	r3, r3, #8
 8000d0c:	4298      	cmp	r0, r3
 8000d0e:	d301      	bcc.n	8000d14 <__clzsi2+0x18>
 8000d10:	0a00      	lsrs	r0, r0, #8
 8000d12:	3908      	subs	r1, #8
 8000d14:	091b      	lsrs	r3, r3, #4
 8000d16:	4298      	cmp	r0, r3
 8000d18:	d301      	bcc.n	8000d1e <__clzsi2+0x22>
 8000d1a:	0900      	lsrs	r0, r0, #4
 8000d1c:	3904      	subs	r1, #4
 8000d1e:	a202      	add	r2, pc, #8	; (adr r2, 8000d28 <__clzsi2+0x2c>)
 8000d20:	5c10      	ldrb	r0, [r2, r0]
 8000d22:	1840      	adds	r0, r0, r1
 8000d24:	4770      	bx	lr
 8000d26:	46c0      	nop			; (mov r8, r8)
 8000d28:	02020304 	.word	0x02020304
 8000d2c:	01010101 	.word	0x01010101
	...

08000d38 <__clzdi2>:
 8000d38:	b510      	push	{r4, lr}
 8000d3a:	2900      	cmp	r1, #0
 8000d3c:	d103      	bne.n	8000d46 <__clzdi2+0xe>
 8000d3e:	f7ff ffdd 	bl	8000cfc <__clzsi2>
 8000d42:	3020      	adds	r0, #32
 8000d44:	e002      	b.n	8000d4c <__clzdi2+0x14>
 8000d46:	1c08      	adds	r0, r1, #0
 8000d48:	f7ff ffd8 	bl	8000cfc <__clzsi2>
 8000d4c:	bd10      	pop	{r4, pc}
 8000d4e:	46c0      	nop			; (mov r8, r8)

08000d50 <vApplicationGetIdleTaskMemory>:
 8000d50:	4b03      	ldr	r3, [pc, #12]	; (8000d60 <vApplicationGetIdleTaskMemory+0x10>)
 8000d52:	6003      	str	r3, [r0, #0]
 8000d54:	4b03      	ldr	r3, [pc, #12]	; (8000d64 <vApplicationGetIdleTaskMemory+0x14>)
 8000d56:	600b      	str	r3, [r1, #0]
 8000d58:	2380      	movs	r3, #128	; 0x80
 8000d5a:	6013      	str	r3, [r2, #0]
 8000d5c:	4770      	bx	lr
 8000d5e:	46c0      	nop			; (mov r8, r8)
 8000d60:	20000288 	.word	0x20000288
 8000d64:	20000088 	.word	0x20000088

08000d68 <_Z16StartDefaultTaskPKv>:
 8000d68:	2201      	movs	r2, #1
 8000d6a:	20a0      	movs	r0, #160	; 0xa0
 8000d6c:	b510      	push	{r4, lr}
 8000d6e:	0011      	movs	r1, r2
 8000d70:	05c0      	lsls	r0, r0, #23
 8000d72:	f000 fc55 	bl	8001620 <HAL_GPIO_WritePin>
 8000d76:	20a0      	movs	r0, #160	; 0xa0
 8000d78:	2200      	movs	r2, #0
 8000d7a:	2102      	movs	r1, #2
 8000d7c:	05c0      	lsls	r0, r0, #23
 8000d7e:	24a0      	movs	r4, #160	; 0xa0
 8000d80:	f000 fc4e 	bl	8001620 <HAL_GPIO_WritePin>
 8000d84:	05e4      	lsls	r4, r4, #23
 8000d86:	2032      	movs	r0, #50	; 0x32
 8000d88:	f001 feee 	bl	8002b68 <osDelay>
 8000d8c:	0020      	movs	r0, r4
 8000d8e:	2101      	movs	r1, #1
 8000d90:	f000 fc4c 	bl	800162c <HAL_GPIO_TogglePin>
 8000d94:	2102      	movs	r1, #2
 8000d96:	0020      	movs	r0, r4
 8000d98:	f000 fc48 	bl	800162c <HAL_GPIO_TogglePin>
 8000d9c:	4803      	ldr	r0, [pc, #12]	; (8000dac <_Z16StartDefaultTaskPKv+0x44>)
 8000d9e:	f000 fab5 	bl	800130c <_ZN6TMP4618readTempEv>
 8000da2:	4803      	ldr	r0, [pc, #12]	; (8000db0 <_Z16StartDefaultTaskPKv+0x48>)
 8000da4:	f000 fab2 	bl	800130c <_ZN6TMP4618readTempEv>
 8000da8:	e7ed      	b.n	8000d86 <_Z16StartDefaultTaskPKv+0x1e>
 8000daa:	46c0      	nop			; (mov r8, r8)
 8000dac:	20000530 	.word	0x20000530
 8000db0:	200004dc 	.word	0x200004dc

08000db4 <_Z18SystemClock_Configv>:
 8000db4:	b510      	push	{r4, lr}
 8000db6:	b09a      	sub	sp, #104	; 0x68
 8000db8:	2230      	movs	r2, #48	; 0x30
 8000dba:	2100      	movs	r1, #0
 8000dbc:	a80e      	add	r0, sp, #56	; 0x38
 8000dbe:	f002 fbfa 	bl	80035b6 <memset>
 8000dc2:	2214      	movs	r2, #20
 8000dc4:	2100      	movs	r1, #0
 8000dc6:	a801      	add	r0, sp, #4
 8000dc8:	f002 fbf5 	bl	80035b6 <memset>
 8000dcc:	221c      	movs	r2, #28
 8000dce:	2100      	movs	r1, #0
 8000dd0:	a806      	add	r0, sp, #24
 8000dd2:	f002 fbf0 	bl	80035b6 <memset>
 8000dd6:	4914      	ldr	r1, [pc, #80]	; (8000e28 <_Z18SystemClock_Configv+0x74>)
 8000dd8:	4a14      	ldr	r2, [pc, #80]	; (8000e2c <_Z18SystemClock_Configv+0x78>)
 8000dda:	680b      	ldr	r3, [r1, #0]
 8000ddc:	2400      	movs	r4, #0
 8000dde:	401a      	ands	r2, r3
 8000de0:	2380      	movs	r3, #128	; 0x80
 8000de2:	011b      	lsls	r3, r3, #4
 8000de4:	4313      	orrs	r3, r2
 8000de6:	600b      	str	r3, [r1, #0]
 8000de8:	2310      	movs	r3, #16
 8000dea:	930d      	str	r3, [sp, #52]	; 0x34
 8000dec:	3b0f      	subs	r3, #15
 8000dee:	9313      	str	r3, [sp, #76]	; 0x4c
 8000df0:	23a0      	movs	r3, #160	; 0xa0
 8000df2:	a80d      	add	r0, sp, #52	; 0x34
 8000df4:	021b      	lsls	r3, r3, #8
 8000df6:	9315      	str	r3, [sp, #84]	; 0x54
 8000df8:	9414      	str	r4, [sp, #80]	; 0x50
 8000dfa:	9416      	str	r4, [sp, #88]	; 0x58
 8000dfc:	f000 ff40 	bl	8001c80 <HAL_RCC_OscConfig>
 8000e00:	230f      	movs	r3, #15
 8000e02:	0021      	movs	r1, r4
 8000e04:	a801      	add	r0, sp, #4
 8000e06:	9301      	str	r3, [sp, #4]
 8000e08:	9402      	str	r4, [sp, #8]
 8000e0a:	9403      	str	r4, [sp, #12]
 8000e0c:	9404      	str	r4, [sp, #16]
 8000e0e:	9405      	str	r4, [sp, #20]
 8000e10:	f001 f980 	bl	8002114 <HAL_RCC_ClockConfig>
 8000e14:	2303      	movs	r3, #3
 8000e16:	a806      	add	r0, sp, #24
 8000e18:	9306      	str	r3, [sp, #24]
 8000e1a:	9408      	str	r4, [sp, #32]
 8000e1c:	9409      	str	r4, [sp, #36]	; 0x24
 8000e1e:	f001 fa71 	bl	8002304 <HAL_RCCEx_PeriphCLKConfig>
 8000e22:	b01a      	add	sp, #104	; 0x68
 8000e24:	bd10      	pop	{r4, pc}
 8000e26:	46c0      	nop			; (mov r8, r8)
 8000e28:	40007000 	.word	0x40007000
 8000e2c:	ffffe7ff 	.word	0xffffe7ff

08000e30 <main>:
 8000e30:	b5f0      	push	{r4, r5, r6, r7, lr}
 8000e32:	2701      	movs	r7, #1
 8000e34:	b08b      	sub	sp, #44	; 0x2c
 8000e36:	ad03      	add	r5, sp, #12
 8000e38:	f000 fad6 	bl	80013e8 <HAL_Init>
 8000e3c:	f7ff ffba 	bl	8000db4 <_Z18SystemClock_Configv>
 8000e40:	2214      	movs	r2, #20
 8000e42:	2100      	movs	r1, #0
 8000e44:	0028      	movs	r0, r5
 8000e46:	f002 fbb6 	bl	80035b6 <memset>
 8000e4a:	2102      	movs	r1, #2
 8000e4c:	2414      	movs	r4, #20
 8000e4e:	20a0      	movs	r0, #160	; 0xa0
 8000e50:	4b4d      	ldr	r3, [pc, #308]	; (8000f88 <main+0x158>)
 8000e52:	34ff      	adds	r4, #255	; 0xff
 8000e54:	6ada      	ldr	r2, [r3, #44]	; 0x2c
 8000e56:	4e4d      	ldr	r6, [pc, #308]	; (8000f8c <main+0x15c>)
 8000e58:	433a      	orrs	r2, r7
 8000e5a:	62da      	str	r2, [r3, #44]	; 0x2c
 8000e5c:	6ada      	ldr	r2, [r3, #44]	; 0x2c
 8000e5e:	05c0      	lsls	r0, r0, #23
 8000e60:	403a      	ands	r2, r7
 8000e62:	9201      	str	r2, [sp, #4]
 8000e64:	9a01      	ldr	r2, [sp, #4]
 8000e66:	6ada      	ldr	r2, [r3, #44]	; 0x2c
 8000e68:	430a      	orrs	r2, r1
 8000e6a:	62da      	str	r2, [r3, #44]	; 0x2c
 8000e6c:	6adb      	ldr	r3, [r3, #44]	; 0x2c
 8000e6e:	2200      	movs	r2, #0
 8000e70:	400b      	ands	r3, r1
 8000e72:	9302      	str	r3, [sp, #8]
 8000e74:	0021      	movs	r1, r4
 8000e76:	9b02      	ldr	r3, [sp, #8]
 8000e78:	f000 fbd2 	bl	8001620 <HAL_GPIO_WritePin>
 8000e7c:	2200      	movs	r2, #0
 8000e7e:	0031      	movs	r1, r6
 8000e80:	4843      	ldr	r0, [pc, #268]	; (8000f90 <main+0x160>)
 8000e82:	f000 fbcd 	bl	8001620 <HAL_GPIO_WritePin>
 8000e86:	20a0      	movs	r0, #160	; 0xa0
 8000e88:	9403      	str	r4, [sp, #12]
 8000e8a:	2400      	movs	r4, #0
 8000e8c:	0029      	movs	r1, r5
 8000e8e:	05c0      	lsls	r0, r0, #23
 8000e90:	606f      	str	r7, [r5, #4]
 8000e92:	60ac      	str	r4, [r5, #8]
 8000e94:	60ec      	str	r4, [r5, #12]
 8000e96:	f000 fb0d 	bl	80014b4 <HAL_GPIO_Init>
 8000e9a:	0029      	movs	r1, r5
 8000e9c:	483c      	ldr	r0, [pc, #240]	; (8000f90 <main+0x160>)
 8000e9e:	9603      	str	r6, [sp, #12]
 8000ea0:	606f      	str	r7, [r5, #4]
 8000ea2:	60ac      	str	r4, [r5, #8]
 8000ea4:	60ec      	str	r4, [r5, #12]
 8000ea6:	f000 fb05 	bl	80014b4 <HAL_GPIO_Init>
 8000eaa:	4e3a      	ldr	r6, [pc, #232]	; (8000f94 <main+0x164>)
 8000eac:	4b3a      	ldr	r3, [pc, #232]	; (8000f98 <main+0x168>)
 8000eae:	0030      	movs	r0, r6
 8000eb0:	6033      	str	r3, [r6, #0]
 8000eb2:	23e1      	movs	r3, #225	; 0xe1
 8000eb4:	00db      	lsls	r3, r3, #3
 8000eb6:	6073      	str	r3, [r6, #4]
 8000eb8:	60f7      	str	r7, [r6, #12]
 8000eba:	60b4      	str	r4, [r6, #8]
 8000ebc:	6134      	str	r4, [r6, #16]
 8000ebe:	6174      	str	r4, [r6, #20]
 8000ec0:	61b4      	str	r4, [r6, #24]
 8000ec2:	61f4      	str	r4, [r6, #28]
 8000ec4:	6234      	str	r4, [r6, #32]
 8000ec6:	f000 fccf 	bl	8001868 <HAL_I2C_Init>
 8000eca:	0021      	movs	r1, r4
 8000ecc:	0030      	movs	r0, r6
 8000ece:	f000 fe4d 	bl	8001b6c <HAL_I2CEx_ConfigAnalogFilter>
 8000ed2:	0021      	movs	r1, r4
 8000ed4:	0030      	movs	r0, r6
 8000ed6:	f000 fe6f 	bl	8001bb8 <HAL_I2CEx_ConfigDigitalFilter>
 8000eda:	4830      	ldr	r0, [pc, #192]	; (8000f9c <main+0x16c>)
 8000edc:	4b30      	ldr	r3, [pc, #192]	; (8000fa0 <main+0x170>)
 8000ede:	2680      	movs	r6, #128	; 0x80
 8000ee0:	6003      	str	r3, [r0, #0]
 8000ee2:	2307      	movs	r3, #7
 8000ee4:	3704      	adds	r7, #4
 8000ee6:	37ff      	adds	r7, #255	; 0xff
 8000ee8:	00b6      	lsls	r6, r6, #2
 8000eea:	6047      	str	r7, [r0, #4]
 8000eec:	6186      	str	r6, [r0, #24]
 8000eee:	62c3      	str	r3, [r0, #44]	; 0x2c
 8000ef0:	6084      	str	r4, [r0, #8]
 8000ef2:	60c4      	str	r4, [r0, #12]
 8000ef4:	6104      	str	r4, [r0, #16]
 8000ef6:	6144      	str	r4, [r0, #20]
 8000ef8:	61c4      	str	r4, [r0, #28]
 8000efa:	6204      	str	r4, [r0, #32]
 8000efc:	6244      	str	r4, [r0, #36]	; 0x24
 8000efe:	6284      	str	r4, [r0, #40]	; 0x28
 8000f00:	f001 fac2 	bl	8002488 <HAL_SPI_Init>
 8000f04:	4827      	ldr	r0, [pc, #156]	; (8000fa4 <main+0x174>)
 8000f06:	4b28      	ldr	r3, [pc, #160]	; (8000fa8 <main+0x178>)
 8000f08:	6047      	str	r7, [r0, #4]
 8000f0a:	6003      	str	r3, [r0, #0]
 8000f0c:	2307      	movs	r3, #7
 8000f0e:	27e1      	movs	r7, #225	; 0xe1
 8000f10:	6186      	str	r6, [r0, #24]
 8000f12:	62c3      	str	r3, [r0, #44]	; 0x2c
 8000f14:	6084      	str	r4, [r0, #8]
 8000f16:	60c4      	str	r4, [r0, #12]
 8000f18:	6104      	str	r4, [r0, #16]
 8000f1a:	6144      	str	r4, [r0, #20]
 8000f1c:	61c4      	str	r4, [r0, #28]
 8000f1e:	6204      	str	r4, [r0, #32]
 8000f20:	6244      	str	r4, [r0, #36]	; 0x24
 8000f22:	6284      	str	r4, [r0, #40]	; 0x28
 8000f24:	3ef5      	subs	r6, #245	; 0xf5
 8000f26:	f001 faaf 	bl	8002488 <HAL_SPI_Init>
 8000f2a:	4820      	ldr	r0, [pc, #128]	; (8000fac <main+0x17c>)
 8000f2c:	4b20      	ldr	r3, [pc, #128]	; (8000fb0 <main+0x180>)
 8000f2e:	3eff      	subs	r6, #255	; 0xff
 8000f30:	027f      	lsls	r7, r7, #9
 8000f32:	6146      	str	r6, [r0, #20]
 8000f34:	6003      	str	r3, [r0, #0]
 8000f36:	6047      	str	r7, [r0, #4]
 8000f38:	6084      	str	r4, [r0, #8]
 8000f3a:	60c4      	str	r4, [r0, #12]
 8000f3c:	6104      	str	r4, [r0, #16]
 8000f3e:	6184      	str	r4, [r0, #24]
 8000f40:	61c4      	str	r4, [r0, #28]
 8000f42:	6204      	str	r4, [r0, #32]
 8000f44:	6244      	str	r4, [r0, #36]	; 0x24
 8000f46:	f001 fdad 	bl	8002aa4 <HAL_UART_Init>
 8000f4a:	481a      	ldr	r0, [pc, #104]	; (8000fb4 <main+0x184>)
 8000f4c:	4b1a      	ldr	r3, [pc, #104]	; (8000fb8 <main+0x188>)
 8000f4e:	6146      	str	r6, [r0, #20]
 8000f50:	6003      	str	r3, [r0, #0]
 8000f52:	6047      	str	r7, [r0, #4]
 8000f54:	6084      	str	r4, [r0, #8]
 8000f56:	60c4      	str	r4, [r0, #12]
 8000f58:	6104      	str	r4, [r0, #16]
 8000f5a:	6184      	str	r4, [r0, #24]
 8000f5c:	61c4      	str	r4, [r0, #28]
 8000f5e:	6204      	str	r4, [r0, #32]
 8000f60:	6244      	str	r4, [r0, #36]	; 0x24
 8000f62:	f001 fd9f 	bl	8002aa4 <HAL_UART_Init>
 8000f66:	002a      	movs	r2, r5
 8000f68:	4b14      	ldr	r3, [pc, #80]	; (8000fbc <main+0x18c>)
 8000f6a:	cb43      	ldmia	r3!, {r0, r1, r6}
 8000f6c:	c243      	stmia	r2!, {r0, r1, r6}
 8000f6e:	cb43      	ldmia	r3!, {r0, r1, r6}
 8000f70:	c243      	stmia	r2!, {r0, r1, r6}
 8000f72:	681b      	ldr	r3, [r3, #0]
 8000f74:	0021      	movs	r1, r4
 8000f76:	6013      	str	r3, [r2, #0]
 8000f78:	0028      	movs	r0, r5
 8000f7a:	f001 fdca 	bl	8002b12 <osThreadCreate>
 8000f7e:	4b10      	ldr	r3, [pc, #64]	; (8000fc0 <main+0x190>)
 8000f80:	6018      	str	r0, [r3, #0]
 8000f82:	f001 fdc1 	bl	8002b08 <osKernelStart>
 8000f86:	e7fe      	b.n	8000f86 <main+0x156>
 8000f88:	40021000 	.word	0x40021000
 8000f8c:	00001001 	.word	0x00001001
 8000f90:	50000400 	.word	0x50000400
 8000f94:	200002e0 	.word	0x200002e0
 8000f98:	40005800 	.word	0x40005800
 8000f9c:	2000032c 	.word	0x2000032c
 8000fa0:	40013000 	.word	0x40013000
 8000fa4:	20000384 	.word	0x20000384
 8000fa8:	40003800 	.word	0x40003800
 8000fac:	200003dc 	.word	0x200003dc
 8000fb0:	40013800 	.word	0x40013800
 8000fb4:	2000045c 	.word	0x2000045c
 8000fb8:	40004400 	.word	0x40004400
 8000fbc:	08003678 	.word	0x08003678
 8000fc0:	200002dc 	.word	0x200002dc

08000fc4 <HAL_TIM_PeriodElapsedCallback>:
 8000fc4:	4b03      	ldr	r3, [pc, #12]	; (8000fd4 <HAL_TIM_PeriodElapsedCallback+0x10>)
 8000fc6:	6802      	ldr	r2, [r0, #0]
 8000fc8:	b510      	push	{r4, lr}
 8000fca:	429a      	cmp	r2, r3
 8000fcc:	d101      	bne.n	8000fd2 <HAL_TIM_PeriodElapsedCallback+0xe>
 8000fce:	f000 fa1f 	bl	8001410 <HAL_IncTick>
 8000fd2:	bd10      	pop	{r4, pc}
 8000fd4:	40001000 	.word	0x40001000

08000fd8 <_GLOBAL__sub_I_hi2c2>:
 8000fd8:	b570      	push	{r4, r5, r6, lr}
 8000fda:	4c0f      	ldr	r4, [pc, #60]	; (8001018 <_GLOBAL__sub_I_hi2c2+0x40>)
 8000fdc:	2640      	movs	r6, #64	; 0x40
 8000fde:	0025      	movs	r5, r4
 8000fe0:	2348      	movs	r3, #72	; 0x48
 8000fe2:	b092      	sub	sp, #72	; 0x48
 8000fe4:	350c      	adds	r5, #12
 8000fe6:	0032      	movs	r2, r6
 8000fe8:	0029      	movs	r1, r5
 8000fea:	4668      	mov	r0, sp
 8000fec:	9310      	str	r3, [sp, #64]	; 0x40
 8000fee:	f002 fad9 	bl	80035a4 <memcpy>
 8000ff2:	6821      	ldr	r1, [r4, #0]
 8000ff4:	6862      	ldr	r2, [r4, #4]
 8000ff6:	68a3      	ldr	r3, [r4, #8]
 8000ff8:	4808      	ldr	r0, [pc, #32]	; (800101c <_GLOBAL__sub_I_hi2c2+0x44>)
 8000ffa:	f000 f96d 	bl	80012d8 <_ZN6TMP461C1E19__I2C_HandleTypeDeft>
 8000ffe:	2349      	movs	r3, #73	; 0x49
 8001000:	0032      	movs	r2, r6
 8001002:	0029      	movs	r1, r5
 8001004:	4668      	mov	r0, sp
 8001006:	9310      	str	r3, [sp, #64]	; 0x40
 8001008:	f002 facc 	bl	80035a4 <memcpy>
 800100c:	cc0e      	ldmia	r4!, {r1, r2, r3}
 800100e:	4804      	ldr	r0, [pc, #16]	; (8001020 <_GLOBAL__sub_I_hi2c2+0x48>)
 8001010:	f000 f962 	bl	80012d8 <_ZN6TMP461C1E19__I2C_HandleTypeDeft>
 8001014:	b012      	add	sp, #72	; 0x48
 8001016:	bd70      	pop	{r4, r5, r6, pc}
 8001018:	200002e0 	.word	0x200002e0
 800101c:	20000530 	.word	0x20000530
 8001020:	200004dc 	.word	0x200004dc

08001024 <_GLOBAL__sub_D_hi2c2>:
 8001024:	b510      	push	{r4, lr}
 8001026:	4803      	ldr	r0, [pc, #12]	; (8001034 <_GLOBAL__sub_D_hi2c2+0x10>)
 8001028:	f000 f94e 	bl	80012c8 <_ZN6TMP461D1Ev>
 800102c:	4802      	ldr	r0, [pc, #8]	; (8001038 <_GLOBAL__sub_D_hi2c2+0x14>)
 800102e:	f000 f94b 	bl	80012c8 <_ZN6TMP461D1Ev>
 8001032:	bd10      	pop	{r4, pc}
 8001034:	200004dc 	.word	0x200004dc
 8001038:	20000530 	.word	0x20000530

0800103c <HAL_MspInit>:
 800103c:	2201      	movs	r2, #1
 800103e:	4b08      	ldr	r3, [pc, #32]	; (8001060 <HAL_MspInit+0x24>)
 8001040:	b510      	push	{r4, lr}
 8001042:	6b59      	ldr	r1, [r3, #52]	; 0x34
 8001044:	2002      	movs	r0, #2
 8001046:	430a      	orrs	r2, r1
 8001048:	635a      	str	r2, [r3, #52]	; 0x34
 800104a:	2280      	movs	r2, #128	; 0x80
 800104c:	6b99      	ldr	r1, [r3, #56]	; 0x38
 800104e:	0552      	lsls	r2, r2, #21
 8001050:	430a      	orrs	r2, r1
 8001052:	639a      	str	r2, [r3, #56]	; 0x38
 8001054:	2103      	movs	r1, #3
 8001056:	2200      	movs	r2, #0
 8001058:	4240      	negs	r0, r0
 800105a:	f000 f9f7 	bl	800144c <HAL_NVIC_SetPriority>
 800105e:	bd10      	pop	{r4, pc}
 8001060:	40021000 	.word	0x40021000

08001064 <HAL_I2C_MspInit>:
 8001064:	b510      	push	{r4, lr}
 8001066:	0004      	movs	r4, r0
 8001068:	b086      	sub	sp, #24
 800106a:	2214      	movs	r2, #20
 800106c:	2100      	movs	r1, #0
 800106e:	a801      	add	r0, sp, #4
 8001070:	f002 faa1 	bl	80035b6 <memset>
 8001074:	4b11      	ldr	r3, [pc, #68]	; (80010bc <HAL_I2C_MspInit+0x58>)
 8001076:	6822      	ldr	r2, [r4, #0]
 8001078:	429a      	cmp	r2, r3
 800107a:	d11c      	bne.n	80010b6 <HAL_I2C_MspInit+0x52>
 800107c:	2102      	movs	r1, #2
 800107e:	4c10      	ldr	r4, [pc, #64]	; (80010c0 <HAL_I2C_MspInit+0x5c>)
 8001080:	4810      	ldr	r0, [pc, #64]	; (80010c4 <HAL_I2C_MspInit+0x60>)
 8001082:	6ae2      	ldr	r2, [r4, #44]	; 0x2c
 8001084:	430a      	orrs	r2, r1
 8001086:	62e2      	str	r2, [r4, #44]	; 0x2c
 8001088:	6ae3      	ldr	r3, [r4, #44]	; 0x2c
 800108a:	400b      	ands	r3, r1
 800108c:	9300      	str	r3, [sp, #0]
 800108e:	9b00      	ldr	r3, [sp, #0]
 8001090:	23c0      	movs	r3, #192	; 0xc0
 8001092:	011b      	lsls	r3, r3, #4
 8001094:	9301      	str	r3, [sp, #4]
 8001096:	2312      	movs	r3, #18
 8001098:	9302      	str	r3, [sp, #8]
 800109a:	3b11      	subs	r3, #17
 800109c:	9303      	str	r3, [sp, #12]
 800109e:	185b      	adds	r3, r3, r1
 80010a0:	9304      	str	r3, [sp, #16]
 80010a2:	a901      	add	r1, sp, #4
 80010a4:	3303      	adds	r3, #3
 80010a6:	9305      	str	r3, [sp, #20]
 80010a8:	f000 fa04 	bl	80014b4 <HAL_GPIO_Init>
 80010ac:	2380      	movs	r3, #128	; 0x80
 80010ae:	6ba2      	ldr	r2, [r4, #56]	; 0x38
 80010b0:	03db      	lsls	r3, r3, #15
 80010b2:	4313      	orrs	r3, r2
 80010b4:	63a3      	str	r3, [r4, #56]	; 0x38
 80010b6:	b006      	add	sp, #24
 80010b8:	bd10      	pop	{r4, pc}
 80010ba:	46c0      	nop			; (mov r8, r8)
 80010bc:	40005800 	.word	0x40005800
 80010c0:	40021000 	.word	0x40021000
 80010c4:	50000400 	.word	0x50000400

080010c8 <HAL_SPI_MspInit>:
 80010c8:	b510      	push	{r4, lr}
 80010ca:	0004      	movs	r4, r0
 80010cc:	b088      	sub	sp, #32
 80010ce:	2214      	movs	r2, #20
 80010d0:	2100      	movs	r1, #0
 80010d2:	a803      	add	r0, sp, #12
 80010d4:	f002 fa6f 	bl	80035b6 <memset>
 80010d8:	6823      	ldr	r3, [r4, #0]
 80010da:	4a1c      	ldr	r2, [pc, #112]	; (800114c <HAL_SPI_MspInit+0x84>)
 80010dc:	4293      	cmp	r3, r2
 80010de:	d11a      	bne.n	8001116 <HAL_SPI_MspInit+0x4e>
 80010e0:	2280      	movs	r2, #128	; 0x80
 80010e2:	4b1b      	ldr	r3, [pc, #108]	; (8001150 <HAL_SPI_MspInit+0x88>)
 80010e4:	0152      	lsls	r2, r2, #5
 80010e6:	6b59      	ldr	r1, [r3, #52]	; 0x34
 80010e8:	20a0      	movs	r0, #160	; 0xa0
 80010ea:	430a      	orrs	r2, r1
 80010ec:	2101      	movs	r1, #1
 80010ee:	635a      	str	r2, [r3, #52]	; 0x34
 80010f0:	6ada      	ldr	r2, [r3, #44]	; 0x2c
 80010f2:	05c0      	lsls	r0, r0, #23
 80010f4:	430a      	orrs	r2, r1
 80010f6:	62da      	str	r2, [r3, #44]	; 0x2c
 80010f8:	6adb      	ldr	r3, [r3, #44]	; 0x2c
 80010fa:	400b      	ands	r3, r1
 80010fc:	9301      	str	r3, [sp, #4]
 80010fe:	9b01      	ldr	r3, [sp, #4]
 8001100:	23e0      	movs	r3, #224	; 0xe0
 8001102:	9303      	str	r3, [sp, #12]
 8001104:	3bde      	subs	r3, #222	; 0xde
 8001106:	9304      	str	r3, [sp, #16]
 8001108:	185b      	adds	r3, r3, r1
 800110a:	9306      	str	r3, [sp, #24]
 800110c:	a903      	add	r1, sp, #12
 800110e:	f000 f9d1 	bl	80014b4 <HAL_GPIO_Init>
 8001112:	b008      	add	sp, #32
 8001114:	bd10      	pop	{r4, pc}
 8001116:	4a0f      	ldr	r2, [pc, #60]	; (8001154 <HAL_SPI_MspInit+0x8c>)
 8001118:	4293      	cmp	r3, r2
 800111a:	d1fa      	bne.n	8001112 <HAL_SPI_MspInit+0x4a>
 800111c:	2280      	movs	r2, #128	; 0x80
 800111e:	4b0c      	ldr	r3, [pc, #48]	; (8001150 <HAL_SPI_MspInit+0x88>)
 8001120:	01d2      	lsls	r2, r2, #7
 8001122:	6b99      	ldr	r1, [r3, #56]	; 0x38
 8001124:	480c      	ldr	r0, [pc, #48]	; (8001158 <HAL_SPI_MspInit+0x90>)
 8001126:	430a      	orrs	r2, r1
 8001128:	639a      	str	r2, [r3, #56]	; 0x38
 800112a:	2202      	movs	r2, #2
 800112c:	6ad9      	ldr	r1, [r3, #44]	; 0x2c
 800112e:	4311      	orrs	r1, r2
 8001130:	62d9      	str	r1, [r3, #44]	; 0x2c
 8001132:	6adb      	ldr	r3, [r3, #44]	; 0x2c
 8001134:	a903      	add	r1, sp, #12
 8001136:	4013      	ands	r3, r2
 8001138:	9302      	str	r3, [sp, #8]
 800113a:	9b02      	ldr	r3, [sp, #8]
 800113c:	23e0      	movs	r3, #224	; 0xe0
 800113e:	021b      	lsls	r3, r3, #8
 8001140:	9303      	str	r3, [sp, #12]
 8001142:	2303      	movs	r3, #3
 8001144:	9204      	str	r2, [sp, #16]
 8001146:	9306      	str	r3, [sp, #24]
 8001148:	e7e1      	b.n	800110e <HAL_SPI_MspInit+0x46>
 800114a:	46c0      	nop			; (mov r8, r8)
 800114c:	40013000 	.word	0x40013000
 8001150:	40021000 	.word	0x40021000
 8001154:	40003800 	.word	0x40003800
 8001158:	50000400 	.word	0x50000400

0800115c <HAL_UART_MspInit>:
 800115c:	b510      	push	{r4, lr}
 800115e:	0004      	movs	r4, r0
 8001160:	b088      	sub	sp, #32
 8001162:	2214      	movs	r2, #20
 8001164:	2100      	movs	r1, #0
 8001166:	a803      	add	r0, sp, #12
 8001168:	f002 fa25 	bl	80035b6 <memset>
 800116c:	6823      	ldr	r3, [r4, #0]
 800116e:	4a1b      	ldr	r2, [pc, #108]	; (80011dc <HAL_UART_MspInit+0x80>)
 8001170:	4293      	cmp	r3, r2
 8001172:	d11d      	bne.n	80011b0 <HAL_UART_MspInit+0x54>
 8001174:	2280      	movs	r2, #128	; 0x80
 8001176:	4b1a      	ldr	r3, [pc, #104]	; (80011e0 <HAL_UART_MspInit+0x84>)
 8001178:	01d2      	lsls	r2, r2, #7
 800117a:	6b59      	ldr	r1, [r3, #52]	; 0x34
 800117c:	430a      	orrs	r2, r1
 800117e:	2101      	movs	r1, #1
 8001180:	635a      	str	r2, [r3, #52]	; 0x34
 8001182:	6ada      	ldr	r2, [r3, #44]	; 0x2c
 8001184:	430a      	orrs	r2, r1
 8001186:	62da      	str	r2, [r3, #44]	; 0x2c
 8001188:	6adb      	ldr	r3, [r3, #44]	; 0x2c
 800118a:	400b      	ands	r3, r1
 800118c:	9301      	str	r3, [sp, #4]
 800118e:	9b01      	ldr	r3, [sp, #4]
 8001190:	23c0      	movs	r3, #192	; 0xc0
 8001192:	00db      	lsls	r3, r3, #3
 8001194:	9303      	str	r3, [sp, #12]
 8001196:	2302      	movs	r3, #2
 8001198:	20a0      	movs	r0, #160	; 0xa0
 800119a:	9304      	str	r3, [sp, #16]
 800119c:	185b      	adds	r3, r3, r1
 800119e:	9306      	str	r3, [sp, #24]
 80011a0:	05c0      	lsls	r0, r0, #23
 80011a2:	185b      	adds	r3, r3, r1
 80011a4:	a903      	add	r1, sp, #12
 80011a6:	9307      	str	r3, [sp, #28]
 80011a8:	f000 f984 	bl	80014b4 <HAL_GPIO_Init>
 80011ac:	b008      	add	sp, #32
 80011ae:	bd10      	pop	{r4, pc}
 80011b0:	4a0c      	ldr	r2, [pc, #48]	; (80011e4 <HAL_UART_MspInit+0x88>)
 80011b2:	4293      	cmp	r3, r2
 80011b4:	d1fa      	bne.n	80011ac <HAL_UART_MspInit+0x50>
 80011b6:	2280      	movs	r2, #128	; 0x80
 80011b8:	4b09      	ldr	r3, [pc, #36]	; (80011e0 <HAL_UART_MspInit+0x84>)
 80011ba:	0292      	lsls	r2, r2, #10
 80011bc:	6b99      	ldr	r1, [r3, #56]	; 0x38
 80011be:	430a      	orrs	r2, r1
 80011c0:	2101      	movs	r1, #1
 80011c2:	639a      	str	r2, [r3, #56]	; 0x38
 80011c4:	6ada      	ldr	r2, [r3, #44]	; 0x2c
 80011c6:	430a      	orrs	r2, r1
 80011c8:	62da      	str	r2, [r3, #44]	; 0x2c
 80011ca:	6adb      	ldr	r3, [r3, #44]	; 0x2c
 80011cc:	400b      	ands	r3, r1
 80011ce:	9302      	str	r3, [sp, #8]
 80011d0:	9b02      	ldr	r3, [sp, #8]
 80011d2:	230c      	movs	r3, #12
 80011d4:	9303      	str	r3, [sp, #12]
 80011d6:	3b0a      	subs	r3, #10
 80011d8:	e7de      	b.n	8001198 <HAL_UART_MspInit+0x3c>
 80011da:	46c0      	nop			; (mov r8, r8)
 80011dc:	40013800 	.word	0x40013800
 80011e0:	40021000 	.word	0x40021000
 80011e4:	40004400 	.word	0x40004400

080011e8 <HAL_InitTick>:
 80011e8:	b510      	push	{r4, lr}
 80011ea:	0001      	movs	r1, r0
 80011ec:	b086      	sub	sp, #24
 80011ee:	2200      	movs	r2, #0
 80011f0:	2011      	movs	r0, #17
 80011f2:	f000 f92b 	bl	800144c <HAL_NVIC_SetPriority>
 80011f6:	2011      	movs	r0, #17
 80011f8:	f000 f952 	bl	80014a0 <HAL_NVIC_EnableIRQ>
 80011fc:	2310      	movs	r3, #16
 80011fe:	4a11      	ldr	r2, [pc, #68]	; (8001244 <HAL_InitTick+0x5c>)
 8001200:	a801      	add	r0, sp, #4
 8001202:	6b91      	ldr	r1, [r2, #56]	; 0x38
 8001204:	430b      	orrs	r3, r1
 8001206:	6393      	str	r3, [r2, #56]	; 0x38
 8001208:	4669      	mov	r1, sp
 800120a:	f001 f85b 	bl	80022c4 <HAL_RCC_GetClockConfig>
 800120e:	f001 f839 	bl	8002284 <HAL_RCC_GetPCLK1Freq>
 8001212:	4c0d      	ldr	r4, [pc, #52]	; (8001248 <HAL_InitTick+0x60>)
 8001214:	4b0d      	ldr	r3, [pc, #52]	; (800124c <HAL_InitTick+0x64>)
 8001216:	490e      	ldr	r1, [pc, #56]	; (8001250 <HAL_InitTick+0x68>)
 8001218:	6023      	str	r3, [r4, #0]
 800121a:	4b0e      	ldr	r3, [pc, #56]	; (8001254 <HAL_InitTick+0x6c>)
 800121c:	60e3      	str	r3, [r4, #12]
 800121e:	f7fe ff7d 	bl	800011c <__udivsi3>
 8001222:	2300      	movs	r3, #0
 8001224:	3801      	subs	r0, #1
 8001226:	6060      	str	r0, [r4, #4]
 8001228:	0020      	movs	r0, r4
 800122a:	6123      	str	r3, [r4, #16]
 800122c:	60a3      	str	r3, [r4, #8]
 800122e:	f001 f99a 	bl	8002566 <HAL_TIM_Base_Init>
 8001232:	0003      	movs	r3, r0
 8001234:	2001      	movs	r0, #1
 8001236:	2b00      	cmp	r3, #0
 8001238:	d102      	bne.n	8001240 <HAL_InitTick+0x58>
 800123a:	0020      	movs	r0, r4
 800123c:	f001 f9ae 	bl	800259c <HAL_TIM_Base_Start_IT>
 8001240:	b006      	add	sp, #24
 8001242:	bd10      	pop	{r4, pc}
 8001244:	40021000 	.word	0x40021000
 8001248:	200012c8 	.word	0x200012c8
 800124c:	40001000 	.word	0x40001000
 8001250:	000f4240 	.word	0x000f4240
 8001254:	000003e7 	.word	0x000003e7

08001258 <NMI_Handler>:
 8001258:	4770      	bx	lr

0800125a <HardFault_Handler>:
 800125a:	e7fe      	b.n	800125a <HardFault_Handler>

0800125c <TIM6_IRQHandler>:
 800125c:	b510      	push	{r4, lr}
 800125e:	4802      	ldr	r0, [pc, #8]	; (8001268 <TIM6_IRQHandler+0xc>)
 8001260:	f001 f9af 	bl	80025c2 <HAL_TIM_IRQHandler>
 8001264:	bd10      	pop	{r4, pc}
 8001266:	46c0      	nop			; (mov r8, r8)
 8001268:	200012c8 	.word	0x200012c8

0800126c <SystemInit>:
 800126c:	2280      	movs	r2, #128	; 0x80
 800126e:	4b10      	ldr	r3, [pc, #64]	; (80012b0 <SystemInit+0x44>)
 8001270:	0052      	lsls	r2, r2, #1
 8001272:	6819      	ldr	r1, [r3, #0]
 8001274:	430a      	orrs	r2, r1
 8001276:	601a      	str	r2, [r3, #0]
 8001278:	68da      	ldr	r2, [r3, #12]
 800127a:	490e      	ldr	r1, [pc, #56]	; (80012b4 <SystemInit+0x48>)
 800127c:	400a      	ands	r2, r1
 800127e:	60da      	str	r2, [r3, #12]
 8001280:	681a      	ldr	r2, [r3, #0]
 8001282:	490d      	ldr	r1, [pc, #52]	; (80012b8 <SystemInit+0x4c>)
 8001284:	400a      	ands	r2, r1
 8001286:	2101      	movs	r1, #1
 8001288:	601a      	str	r2, [r3, #0]
 800128a:	689a      	ldr	r2, [r3, #8]
 800128c:	438a      	bics	r2, r1
 800128e:	609a      	str	r2, [r3, #8]
 8001290:	681a      	ldr	r2, [r3, #0]
 8001292:	490a      	ldr	r1, [pc, #40]	; (80012bc <SystemInit+0x50>)
 8001294:	400a      	ands	r2, r1
 8001296:	601a      	str	r2, [r3, #0]
 8001298:	68da      	ldr	r2, [r3, #12]
 800129a:	4909      	ldr	r1, [pc, #36]	; (80012c0 <SystemInit+0x54>)
 800129c:	400a      	ands	r2, r1
 800129e:	60da      	str	r2, [r3, #12]
 80012a0:	2200      	movs	r2, #0
 80012a2:	611a      	str	r2, [r3, #16]
 80012a4:	2280      	movs	r2, #128	; 0x80
 80012a6:	4b07      	ldr	r3, [pc, #28]	; (80012c4 <SystemInit+0x58>)
 80012a8:	0512      	lsls	r2, r2, #20
 80012aa:	609a      	str	r2, [r3, #8]
 80012ac:	4770      	bx	lr
 80012ae:	46c0      	nop			; (mov r8, r8)
 80012b0:	40021000 	.word	0x40021000
 80012b4:	88ff400c 	.word	0x88ff400c
 80012b8:	fef6fff6 	.word	0xfef6fff6
 80012bc:	fffbffff 	.word	0xfffbffff
 80012c0:	ff02ffff 	.word	0xff02ffff
 80012c4:	e000ed00 	.word	0xe000ed00

080012c8 <_ZN6TMP461D1Ev>:
 80012c8:	4770      	bx	lr

080012ca <_ZN6TMP461D0Ev>:
 80012ca:	b510      	push	{r4, lr}
 80012cc:	0004      	movs	r4, r0
 80012ce:	2154      	movs	r1, #84	; 0x54
 80012d0:	f002 f932 	bl	8003538 <_ZdlPvj>
 80012d4:	0020      	movs	r0, r4
 80012d6:	bd10      	pop	{r4, pc}

080012d8 <_ZN6TMP461C1E19__I2C_HandleTypeDeft>:
 80012d8:	b084      	sub	sp, #16
 80012da:	b570      	push	{r4, r5, r6, lr}
 80012dc:	0004      	movs	r4, r0
 80012de:	9307      	str	r3, [sp, #28]
 80012e0:	ab18      	add	r3, sp, #96	; 0x60
 80012e2:	881d      	ldrh	r5, [r3, #0]
 80012e4:	4b08      	ldr	r3, [pc, #32]	; (8001308 <_ZN6TMP461C1E19__I2C_HandleTypeDeft+0x30>)
 80012e6:	9105      	str	r1, [sp, #20]
 80012e8:	3308      	adds	r3, #8
 80012ea:	9206      	str	r2, [sp, #24]
 80012ec:	c008      	stmia	r0!, {r3}
 80012ee:	224c      	movs	r2, #76	; 0x4c
 80012f0:	a905      	add	r1, sp, #20
 80012f2:	f002 f957 	bl	80035a4 <memcpy>
 80012f6:	0023      	movs	r3, r4
 80012f8:	3350      	adds	r3, #80	; 0x50
 80012fa:	801d      	strh	r5, [r3, #0]
 80012fc:	0020      	movs	r0, r4
 80012fe:	bc70      	pop	{r4, r5, r6}
 8001300:	bc08      	pop	{r3}
 8001302:	b004      	add	sp, #16
 8001304:	4718      	bx	r3
 8001306:	46c0      	nop			; (mov r8, r8)
 8001308:	08003744 	.word	0x08003744

0800130c <_ZN6TMP4618readTempEv>:
 800130c:	b5f0      	push	{r4, r5, r6, r7, lr}
 800130e:	2300      	movs	r3, #0
 8001310:	2701      	movs	r7, #1
 8001312:	b085      	sub	sp, #20
 8001314:	ac03      	add	r4, sp, #12
 8001316:	8023      	strh	r3, [r4, #0]
 8001318:	1d06      	adds	r6, r0, #4
 800131a:	427f      	negs	r7, r7
 800131c:	3050      	adds	r0, #80	; 0x50
 800131e:	8801      	ldrh	r1, [r0, #0]
 8001320:	0005      	movs	r5, r0
 8001322:	9700      	str	r7, [sp, #0]
 8001324:	3301      	adds	r3, #1
 8001326:	0022      	movs	r2, r4
 8001328:	0030      	movs	r0, r6
 800132a:	f000 faf3 	bl	8001914 <HAL_I2C_Master_Transmit>
 800132e:	2800      	cmp	r0, #0
 8001330:	d009      	beq.n	8001346 <_ZN6TMP4618readTempEv+0x3a>
 8001332:	2400      	movs	r4, #0
 8001334:	20fa      	movs	r0, #250	; 0xfa
 8001336:	0040      	lsls	r0, r0, #1
 8001338:	f000 f878 	bl	800142c <HAL_Delay>
 800133c:	1c20      	adds	r0, r4, #0
 800133e:	f7ff f98d 	bl	800065c <__aeabi_f2iz>
 8001342:	b005      	add	sp, #20
 8001344:	bdf0      	pop	{r4, r5, r6, r7, pc}
 8001346:	8829      	ldrh	r1, [r5, #0]
 8001348:	2302      	movs	r3, #2
 800134a:	9700      	str	r7, [sp, #0]
 800134c:	0022      	movs	r2, r4
 800134e:	0030      	movs	r0, r6
 8001350:	f000 fb76 	bl	8001a40 <HAL_I2C_Master_Receive>
 8001354:	2800      	cmp	r0, #0
 8001356:	d1ec      	bne.n	8001332 <_ZN6TMP4618readTempEv+0x26>
 8001358:	7820      	ldrb	r0, [r4, #0]
 800135a:	7863      	ldrb	r3, [r4, #1]
 800135c:	0100      	lsls	r0, r0, #4
 800135e:	111b      	asrs	r3, r3, #4
 8001360:	4318      	orrs	r0, r3
 8001362:	4b09      	ldr	r3, [pc, #36]	; (8001388 <_ZN6TMP4618readTempEv+0x7c>)
 8001364:	4298      	cmp	r0, r3
 8001366:	dd02      	ble.n	800136e <_ZN6TMP4618readTempEv+0x62>
 8001368:	23f0      	movs	r3, #240	; 0xf0
 800136a:	021b      	lsls	r3, r3, #8
 800136c:	4318      	orrs	r0, r3
 800136e:	f7ff fc07 	bl	8000b80 <__aeabi_i2d>
 8001372:	2200      	movs	r2, #0
 8001374:	4b05      	ldr	r3, [pc, #20]	; (800138c <_ZN6TMP4618readTempEv+0x80>)
 8001376:	f7ff f991 	bl	800069c <__aeabi_dmul>
 800137a:	f7ff fc3b 	bl	8000bf4 <__aeabi_d2f>
 800137e:	4904      	ldr	r1, [pc, #16]	; (8001390 <_ZN6TMP4618readTempEv+0x84>)
 8001380:	f7ff f83a 	bl	80003f8 <__aeabi_fmul>
 8001384:	1c04      	adds	r4, r0, #0
 8001386:	e7d5      	b.n	8001334 <_ZN6TMP4618readTempEv+0x28>
 8001388:	000007ff 	.word	0x000007ff
 800138c:	3fb00000 	.word	0x3fb00000
 8001390:	42c80000 	.word	0x42c80000

08001394 <Reset_Handler>:
 8001394:	480d      	ldr	r0, [pc, #52]	; (80013cc <LoopForever+0x2>)
 8001396:	4685      	mov	sp, r0
 8001398:	2100      	movs	r1, #0
 800139a:	e003      	b.n	80013a4 <LoopCopyDataInit>

0800139c <CopyDataInit>:
 800139c:	4b0c      	ldr	r3, [pc, #48]	; (80013d0 <LoopForever+0x6>)
 800139e:	585b      	ldr	r3, [r3, r1]
 80013a0:	5043      	str	r3, [r0, r1]
 80013a2:	3104      	adds	r1, #4

080013a4 <LoopCopyDataInit>:
 80013a4:	480b      	ldr	r0, [pc, #44]	; (80013d4 <LoopForever+0xa>)
 80013a6:	4b0c      	ldr	r3, [pc, #48]	; (80013d8 <LoopForever+0xe>)
 80013a8:	1842      	adds	r2, r0, r1
 80013aa:	429a      	cmp	r2, r3
 80013ac:	d3f6      	bcc.n	800139c <CopyDataInit>
 80013ae:	4a0b      	ldr	r2, [pc, #44]	; (80013dc <LoopForever+0x12>)
 80013b0:	e002      	b.n	80013b8 <LoopFillZerobss>

080013b2 <FillZerobss>:
 80013b2:	2300      	movs	r3, #0
 80013b4:	6013      	str	r3, [r2, #0]
 80013b6:	3204      	adds	r2, #4

080013b8 <LoopFillZerobss>:
 80013b8:	4b09      	ldr	r3, [pc, #36]	; (80013e0 <LoopForever+0x16>)
 80013ba:	429a      	cmp	r2, r3
 80013bc:	d3f9      	bcc.n	80013b2 <FillZerobss>
 80013be:	f7ff ff55 	bl	800126c <SystemInit>
 80013c2:	f002 f8c1 	bl	8003548 <__libc_init_array>
 80013c6:	f7ff fd33 	bl	8000e30 <main>

080013ca <LoopForever>:
 80013ca:	e7fe      	b.n	80013ca <LoopForever>
 80013cc:	20002000 	.word	0x20002000
 80013d0:	08003784 	.word	0x08003784
 80013d4:	20000000 	.word	0x20000000
 80013d8:	2000006c 	.word	0x2000006c
 80013dc:	2000006c 	.word	0x2000006c
 80013e0:	20001308 	.word	0x20001308

080013e4 <ADC1_COMP_IRQHandler>:
 80013e4:	e7fe      	b.n	80013e4 <ADC1_COMP_IRQHandler>
	...

080013e8 <HAL_Init>:
 80013e8:	2340      	movs	r3, #64	; 0x40
 80013ea:	4a08      	ldr	r2, [pc, #32]	; (800140c <HAL_Init+0x24>)
 80013ec:	b510      	push	{r4, lr}
 80013ee:	6811      	ldr	r1, [r2, #0]
 80013f0:	2000      	movs	r0, #0
 80013f2:	430b      	orrs	r3, r1
 80013f4:	6013      	str	r3, [r2, #0]
 80013f6:	f7ff fef7 	bl	80011e8 <HAL_InitTick>
 80013fa:	1e04      	subs	r4, r0, #0
 80013fc:	d103      	bne.n	8001406 <HAL_Init+0x1e>
 80013fe:	f7ff fe1d 	bl	800103c <HAL_MspInit>
 8001402:	0020      	movs	r0, r4
 8001404:	bd10      	pop	{r4, pc}
 8001406:	2401      	movs	r4, #1
 8001408:	e7fb      	b.n	8001402 <HAL_Init+0x1a>
 800140a:	46c0      	nop			; (mov r8, r8)
 800140c:	40022000 	.word	0x40022000

08001410 <HAL_IncTick>:
 8001410:	4a02      	ldr	r2, [pc, #8]	; (800141c <HAL_IncTick+0xc>)
 8001412:	6813      	ldr	r3, [r2, #0]
 8001414:	3301      	adds	r3, #1
 8001416:	6013      	str	r3, [r2, #0]
 8001418:	4770      	bx	lr
 800141a:	46c0      	nop			; (mov r8, r8)
 800141c:	20001304 	.word	0x20001304

08001420 <HAL_GetTick>:
 8001420:	4b01      	ldr	r3, [pc, #4]	; (8001428 <HAL_GetTick+0x8>)
 8001422:	6818      	ldr	r0, [r3, #0]
 8001424:	4770      	bx	lr
 8001426:	46c0      	nop			; (mov r8, r8)
 8001428:	20001304 	.word	0x20001304

0800142c <HAL_Delay>:
 800142c:	b570      	push	{r4, r5, r6, lr}
 800142e:	0004      	movs	r4, r0
 8001430:	f7ff fff6 	bl	8001420 <HAL_GetTick>
 8001434:	1c63      	adds	r3, r4, #1
 8001436:	1e5a      	subs	r2, r3, #1
 8001438:	4193      	sbcs	r3, r2
 800143a:	0005      	movs	r5, r0
 800143c:	18e4      	adds	r4, r4, r3
 800143e:	f7ff ffef 	bl	8001420 <HAL_GetTick>
 8001442:	1b40      	subs	r0, r0, r5
 8001444:	42a0      	cmp	r0, r4
 8001446:	d3fa      	bcc.n	800143e <HAL_Delay+0x12>
 8001448:	bd70      	pop	{r4, r5, r6, pc}
	...

0800144c <HAL_NVIC_SetPriority>:
 800144c:	b530      	push	{r4, r5, lr}
 800144e:	25ff      	movs	r5, #255	; 0xff
 8001450:	2403      	movs	r4, #3
 8001452:	002a      	movs	r2, r5
 8001454:	b2c3      	uxtb	r3, r0
 8001456:	401c      	ands	r4, r3
 8001458:	00e4      	lsls	r4, r4, #3
 800145a:	40a2      	lsls	r2, r4
 800145c:	0189      	lsls	r1, r1, #6
 800145e:	4029      	ands	r1, r5
 8001460:	43d2      	mvns	r2, r2
 8001462:	40a1      	lsls	r1, r4
 8001464:	2800      	cmp	r0, #0
 8001466:	da0b      	bge.n	8001480 <HAL_NVIC_SetPriority+0x34>
 8001468:	200f      	movs	r0, #15
 800146a:	4003      	ands	r3, r0
 800146c:	3b08      	subs	r3, #8
 800146e:	480a      	ldr	r0, [pc, #40]	; (8001498 <HAL_NVIC_SetPriority+0x4c>)
 8001470:	089b      	lsrs	r3, r3, #2
 8001472:	009b      	lsls	r3, r3, #2
 8001474:	181b      	adds	r3, r3, r0
 8001476:	69d8      	ldr	r0, [r3, #28]
 8001478:	4002      	ands	r2, r0
 800147a:	4311      	orrs	r1, r2
 800147c:	61d9      	str	r1, [r3, #28]
 800147e:	bd30      	pop	{r4, r5, pc}
 8001480:	4b06      	ldr	r3, [pc, #24]	; (800149c <HAL_NVIC_SetPriority+0x50>)
 8001482:	0880      	lsrs	r0, r0, #2
 8001484:	0080      	lsls	r0, r0, #2
 8001486:	18c0      	adds	r0, r0, r3
 8001488:	23c0      	movs	r3, #192	; 0xc0
 800148a:	009b      	lsls	r3, r3, #2
 800148c:	58c4      	ldr	r4, [r0, r3]
 800148e:	4022      	ands	r2, r4
 8001490:	4311      	orrs	r1, r2
 8001492:	50c1      	str	r1, [r0, r3]
 8001494:	e7f3      	b.n	800147e <HAL_NVIC_SetPriority+0x32>
 8001496:	46c0      	nop			; (mov r8, r8)
 8001498:	e000ed00 	.word	0xe000ed00
 800149c:	e000e100 	.word	0xe000e100

080014a0 <HAL_NVIC_EnableIRQ>:
 80014a0:	231f      	movs	r3, #31
 80014a2:	4018      	ands	r0, r3
 80014a4:	3b1e      	subs	r3, #30
 80014a6:	4083      	lsls	r3, r0
 80014a8:	4a01      	ldr	r2, [pc, #4]	; (80014b0 <HAL_NVIC_EnableIRQ+0x10>)
 80014aa:	6013      	str	r3, [r2, #0]
 80014ac:	4770      	bx	lr
 80014ae:	46c0      	nop			; (mov r8, r8)
 80014b0:	e000e100 	.word	0xe000e100

080014b4 <HAL_GPIO_Init>:
 80014b4:	b5f0      	push	{r4, r5, r6, r7, lr}
 80014b6:	4a53      	ldr	r2, [pc, #332]	; (8001604 <HAL_GPIO_Init+0x150>)
 80014b8:	680b      	ldr	r3, [r1, #0]
 80014ba:	1882      	adds	r2, r0, r2
 80014bc:	1e54      	subs	r4, r2, #1
 80014be:	41a2      	sbcs	r2, r4
 80014c0:	b087      	sub	sp, #28
 80014c2:	9303      	str	r3, [sp, #12]
 80014c4:	2300      	movs	r3, #0
 80014c6:	3205      	adds	r2, #5
 80014c8:	9205      	str	r2, [sp, #20]
 80014ca:	9a03      	ldr	r2, [sp, #12]
 80014cc:	40da      	lsrs	r2, r3
 80014ce:	d101      	bne.n	80014d4 <HAL_GPIO_Init+0x20>
 80014d0:	b007      	add	sp, #28
 80014d2:	bdf0      	pop	{r4, r5, r6, r7, pc}
 80014d4:	2501      	movs	r5, #1
 80014d6:	409d      	lsls	r5, r3
 80014d8:	9a03      	ldr	r2, [sp, #12]
 80014da:	402a      	ands	r2, r5
 80014dc:	9202      	str	r2, [sp, #8]
 80014de:	d100      	bne.n	80014e2 <HAL_GPIO_Init+0x2e>
 80014e0:	e08e      	b.n	8001600 <HAL_GPIO_Init+0x14c>
 80014e2:	684a      	ldr	r2, [r1, #4]
 80014e4:	9201      	str	r2, [sp, #4]
 80014e6:	2210      	movs	r2, #16
 80014e8:	9e01      	ldr	r6, [sp, #4]
 80014ea:	4396      	bics	r6, r2
 80014ec:	2e02      	cmp	r6, #2
 80014ee:	d10f      	bne.n	8001510 <HAL_GPIO_Init+0x5c>
 80014f0:	08da      	lsrs	r2, r3, #3
 80014f2:	0092      	lsls	r2, r2, #2
 80014f4:	2407      	movs	r4, #7
 80014f6:	1882      	adds	r2, r0, r2
 80014f8:	6a17      	ldr	r7, [r2, #32]
 80014fa:	9204      	str	r2, [sp, #16]
 80014fc:	220f      	movs	r2, #15
 80014fe:	401c      	ands	r4, r3
 8001500:	00a4      	lsls	r4, r4, #2
 8001502:	40a2      	lsls	r2, r4
 8001504:	4397      	bics	r7, r2
 8001506:	690a      	ldr	r2, [r1, #16]
 8001508:	40a2      	lsls	r2, r4
 800150a:	4317      	orrs	r7, r2
 800150c:	9a04      	ldr	r2, [sp, #16]
 800150e:	6217      	str	r7, [r2, #32]
 8001510:	2203      	movs	r2, #3
 8001512:	005c      	lsls	r4, r3, #1
 8001514:	40a2      	lsls	r2, r4
 8001516:	3e01      	subs	r6, #1
 8001518:	43d2      	mvns	r2, r2
 800151a:	2e01      	cmp	r6, #1
 800151c:	d80d      	bhi.n	800153a <HAL_GPIO_Init+0x86>
 800151e:	68ce      	ldr	r6, [r1, #12]
 8001520:	6887      	ldr	r7, [r0, #8]
 8001522:	40a6      	lsls	r6, r4
 8001524:	4017      	ands	r7, r2
 8001526:	433e      	orrs	r6, r7
 8001528:	6086      	str	r6, [r0, #8]
 800152a:	6846      	ldr	r6, [r0, #4]
 800152c:	43ae      	bics	r6, r5
 800152e:	9d01      	ldr	r5, [sp, #4]
 8001530:	06ed      	lsls	r5, r5, #27
 8001532:	0fed      	lsrs	r5, r5, #31
 8001534:	409d      	lsls	r5, r3
 8001536:	4335      	orrs	r5, r6
 8001538:	6045      	str	r5, [r0, #4]
 800153a:	2603      	movs	r6, #3
 800153c:	9d01      	ldr	r5, [sp, #4]
 800153e:	6807      	ldr	r7, [r0, #0]
 8001540:	4035      	ands	r5, r6
 8001542:	40a5      	lsls	r5, r4
 8001544:	4017      	ands	r7, r2
 8001546:	433d      	orrs	r5, r7
 8001548:	6005      	str	r5, [r0, #0]
 800154a:	68c5      	ldr	r5, [r0, #12]
 800154c:	402a      	ands	r2, r5
 800154e:	688d      	ldr	r5, [r1, #8]
 8001550:	40a5      	lsls	r5, r4
 8001552:	432a      	orrs	r2, r5
 8001554:	60c2      	str	r2, [r0, #12]
 8001556:	9a01      	ldr	r2, [sp, #4]
 8001558:	00d2      	lsls	r2, r2, #3
 800155a:	d551      	bpl.n	8001600 <HAL_GPIO_Init+0x14c>
 800155c:	2501      	movs	r5, #1
 800155e:	4c2a      	ldr	r4, [pc, #168]	; (8001608 <HAL_GPIO_Init+0x154>)
 8001560:	6b62      	ldr	r2, [r4, #52]	; 0x34
 8001562:	432a      	orrs	r2, r5
 8001564:	6362      	str	r2, [r4, #52]	; 0x34
 8001566:	4a29      	ldr	r2, [pc, #164]	; (800160c <HAL_GPIO_Init+0x158>)
 8001568:	089c      	lsrs	r4, r3, #2
 800156a:	00a4      	lsls	r4, r4, #2
 800156c:	18a4      	adds	r4, r4, r2
 800156e:	68a2      	ldr	r2, [r4, #8]
 8001570:	001d      	movs	r5, r3
 8001572:	4694      	mov	ip, r2
 8001574:	220f      	movs	r2, #15
 8001576:	4035      	ands	r5, r6
 8001578:	00ad      	lsls	r5, r5, #2
 800157a:	40aa      	lsls	r2, r5
 800157c:	4667      	mov	r7, ip
 800157e:	4397      	bics	r7, r2
 8001580:	22a0      	movs	r2, #160	; 0xa0
 8001582:	05d2      	lsls	r2, r2, #23
 8001584:	4694      	mov	ip, r2
 8001586:	9704      	str	r7, [sp, #16]
 8001588:	2200      	movs	r2, #0
 800158a:	4560      	cmp	r0, ip
 800158c:	d00d      	beq.n	80015aa <HAL_GPIO_Init+0xf6>
 800158e:	4a20      	ldr	r2, [pc, #128]	; (8001610 <HAL_GPIO_Init+0x15c>)
 8001590:	4694      	mov	ip, r2
 8001592:	2201      	movs	r2, #1
 8001594:	4560      	cmp	r0, ip
 8001596:	d008      	beq.n	80015aa <HAL_GPIO_Init+0xf6>
 8001598:	4f1e      	ldr	r7, [pc, #120]	; (8001614 <HAL_GPIO_Init+0x160>)
 800159a:	1892      	adds	r2, r2, r2
 800159c:	42b8      	cmp	r0, r7
 800159e:	d004      	beq.n	80015aa <HAL_GPIO_Init+0xf6>
 80015a0:	4f1d      	ldr	r7, [pc, #116]	; (8001618 <HAL_GPIO_Init+0x164>)
 80015a2:	0032      	movs	r2, r6
 80015a4:	42b8      	cmp	r0, r7
 80015a6:	d000      	beq.n	80015aa <HAL_GPIO_Init+0xf6>
 80015a8:	9a05      	ldr	r2, [sp, #20]
 80015aa:	40aa      	lsls	r2, r5
 80015ac:	9d04      	ldr	r5, [sp, #16]
 80015ae:	9f01      	ldr	r7, [sp, #4]
 80015b0:	432a      	orrs	r2, r5
 80015b2:	60a2      	str	r2, [r4, #8]
 80015b4:	4a19      	ldr	r2, [pc, #100]	; (800161c <HAL_GPIO_Init+0x168>)
 80015b6:	9c02      	ldr	r4, [sp, #8]
 80015b8:	6816      	ldr	r6, [r2, #0]
 80015ba:	9d02      	ldr	r5, [sp, #8]
 80015bc:	43e4      	mvns	r4, r4
 80015be:	4335      	orrs	r5, r6
 80015c0:	03ff      	lsls	r7, r7, #15
 80015c2:	d401      	bmi.n	80015c8 <HAL_GPIO_Init+0x114>
 80015c4:	0035      	movs	r5, r6
 80015c6:	4025      	ands	r5, r4
 80015c8:	6015      	str	r5, [r2, #0]
 80015ca:	6856      	ldr	r6, [r2, #4]
 80015cc:	9d02      	ldr	r5, [sp, #8]
 80015ce:	9f01      	ldr	r7, [sp, #4]
 80015d0:	4335      	orrs	r5, r6
 80015d2:	03bf      	lsls	r7, r7, #14
 80015d4:	d401      	bmi.n	80015da <HAL_GPIO_Init+0x126>
 80015d6:	0035      	movs	r5, r6
 80015d8:	4025      	ands	r5, r4
 80015da:	6055      	str	r5, [r2, #4]
 80015dc:	6896      	ldr	r6, [r2, #8]
 80015de:	9d02      	ldr	r5, [sp, #8]
 80015e0:	9f01      	ldr	r7, [sp, #4]
 80015e2:	4335      	orrs	r5, r6
 80015e4:	02ff      	lsls	r7, r7, #11
 80015e6:	d401      	bmi.n	80015ec <HAL_GPIO_Init+0x138>
 80015e8:	0035      	movs	r5, r6
 80015ea:	4025      	ands	r5, r4
 80015ec:	6095      	str	r5, [r2, #8]
 80015ee:	68d5      	ldr	r5, [r2, #12]
 80015f0:	9e02      	ldr	r6, [sp, #8]
 80015f2:	9f01      	ldr	r7, [sp, #4]
 80015f4:	432e      	orrs	r6, r5
 80015f6:	02bf      	lsls	r7, r7, #10
 80015f8:	d401      	bmi.n	80015fe <HAL_GPIO_Init+0x14a>
 80015fa:	4025      	ands	r5, r4
 80015fc:	002e      	movs	r6, r5
 80015fe:	60d6      	str	r6, [r2, #12]
 8001600:	3301      	adds	r3, #1
 8001602:	e762      	b.n	80014ca <HAL_GPIO_Init+0x16>
 8001604:	afffe400 	.word	0xafffe400
 8001608:	40021000 	.word	0x40021000
 800160c:	40010000 	.word	0x40010000
 8001610:	50000400 	.word	0x50000400
 8001614:	50000800 	.word	0x50000800
 8001618:	50000c00 	.word	0x50000c00
 800161c:	40010400 	.word	0x40010400

08001620 <HAL_GPIO_WritePin>:
 8001620:	2a00      	cmp	r2, #0
 8001622:	d001      	beq.n	8001628 <HAL_GPIO_WritePin+0x8>
 8001624:	6181      	str	r1, [r0, #24]
 8001626:	4770      	bx	lr
 8001628:	6281      	str	r1, [r0, #40]	; 0x28
 800162a:	e7fc      	b.n	8001626 <HAL_GPIO_WritePin+0x6>

0800162c <HAL_GPIO_TogglePin>:
 800162c:	6943      	ldr	r3, [r0, #20]
 800162e:	4059      	eors	r1, r3
 8001630:	6141      	str	r1, [r0, #20]
 8001632:	4770      	bx	lr

08001634 <I2C_Flush_TXDR>:
 8001634:	6803      	ldr	r3, [r0, #0]
 8001636:	699a      	ldr	r2, [r3, #24]
 8001638:	0792      	lsls	r2, r2, #30
 800163a:	d501      	bpl.n	8001640 <I2C_Flush_TXDR+0xc>
 800163c:	2200      	movs	r2, #0
 800163e:	629a      	str	r2, [r3, #40]	; 0x28
 8001640:	2201      	movs	r2, #1
 8001642:	6999      	ldr	r1, [r3, #24]
 8001644:	4211      	tst	r1, r2
 8001646:	d102      	bne.n	800164e <I2C_Flush_TXDR+0x1a>
 8001648:	6999      	ldr	r1, [r3, #24]
 800164a:	430a      	orrs	r2, r1
 800164c:	619a      	str	r2, [r3, #24]
 800164e:	4770      	bx	lr

08001650 <I2C_TransferConfig>:
 8001650:	b530      	push	{r4, r5, lr}
 8001652:	9c03      	ldr	r4, [sp, #12]
 8001654:	0412      	lsls	r2, r2, #16
 8001656:	6800      	ldr	r0, [r0, #0]
 8001658:	4322      	orrs	r2, r4
 800165a:	4313      	orrs	r3, r2
 800165c:	4a05      	ldr	r2, [pc, #20]	; (8001674 <I2C_TransferConfig+0x24>)
 800165e:	6845      	ldr	r5, [r0, #4]
 8001660:	0589      	lsls	r1, r1, #22
 8001662:	0d64      	lsrs	r4, r4, #21
 8001664:	0d89      	lsrs	r1, r1, #22
 8001666:	4314      	orrs	r4, r2
 8001668:	43a5      	bics	r5, r4
 800166a:	430b      	orrs	r3, r1
 800166c:	432b      	orrs	r3, r5
 800166e:	6043      	str	r3, [r0, #4]
 8001670:	bd30      	pop	{r4, r5, pc}
 8001672:	46c0      	nop			; (mov r8, r8)
 8001674:	03ff63ff 	.word	0x03ff63ff

08001678 <I2C_IsAcknowledgeFailed>:
 8001678:	b5f8      	push	{r3, r4, r5, r6, r7, lr}
 800167a:	6803      	ldr	r3, [r0, #0]
 800167c:	0004      	movs	r4, r0
 800167e:	6998      	ldr	r0, [r3, #24]
 8001680:	2310      	movs	r3, #16
 8001682:	000e      	movs	r6, r1
 8001684:	0017      	movs	r7, r2
 8001686:	4018      	ands	r0, r3
 8001688:	2520      	movs	r5, #32
 800168a:	2800      	cmp	r0, #0
 800168c:	d118      	bne.n	80016c0 <I2C_IsAcknowledgeFailed+0x48>
 800168e:	bdf8      	pop	{r3, r4, r5, r6, r7, pc}
 8001690:	1c72      	adds	r2, r6, #1
 8001692:	d016      	beq.n	80016c2 <I2C_IsAcknowledgeFailed+0x4a>
 8001694:	f7ff fec4 	bl	8001420 <HAL_GetTick>
 8001698:	1bc0      	subs	r0, r0, r7
 800169a:	42b0      	cmp	r0, r6
 800169c:	d801      	bhi.n	80016a2 <I2C_IsAcknowledgeFailed+0x2a>
 800169e:	2e00      	cmp	r6, #0
 80016a0:	d10e      	bne.n	80016c0 <I2C_IsAcknowledgeFailed+0x48>
 80016a2:	2220      	movs	r2, #32
 80016a4:	6c63      	ldr	r3, [r4, #68]	; 0x44
 80016a6:	4313      	orrs	r3, r2
 80016a8:	6463      	str	r3, [r4, #68]	; 0x44
 80016aa:	0023      	movs	r3, r4
 80016ac:	3341      	adds	r3, #65	; 0x41
 80016ae:	701a      	strb	r2, [r3, #0]
 80016b0:	0022      	movs	r2, r4
 80016b2:	2300      	movs	r3, #0
 80016b4:	3242      	adds	r2, #66	; 0x42
 80016b6:	3440      	adds	r4, #64	; 0x40
 80016b8:	7013      	strb	r3, [r2, #0]
 80016ba:	2001      	movs	r0, #1
 80016bc:	7023      	strb	r3, [r4, #0]
 80016be:	e7e6      	b.n	800168e <I2C_IsAcknowledgeFailed+0x16>
 80016c0:	6823      	ldr	r3, [r4, #0]
 80016c2:	699a      	ldr	r2, [r3, #24]
 80016c4:	422a      	tst	r2, r5
 80016c6:	d0e3      	beq.n	8001690 <I2C_IsAcknowledgeFailed+0x18>
 80016c8:	2210      	movs	r2, #16
 80016ca:	0020      	movs	r0, r4
 80016cc:	61da      	str	r2, [r3, #28]
 80016ce:	61dd      	str	r5, [r3, #28]
 80016d0:	f7ff ffb0 	bl	8001634 <I2C_Flush_TXDR>
 80016d4:	6822      	ldr	r2, [r4, #0]
 80016d6:	4906      	ldr	r1, [pc, #24]	; (80016f0 <I2C_IsAcknowledgeFailed+0x78>)
 80016d8:	6853      	ldr	r3, [r2, #4]
 80016da:	400b      	ands	r3, r1
 80016dc:	6053      	str	r3, [r2, #4]
 80016de:	2304      	movs	r3, #4
 80016e0:	6c62      	ldr	r2, [r4, #68]	; 0x44
 80016e2:	4313      	orrs	r3, r2
 80016e4:	6463      	str	r3, [r4, #68]	; 0x44
 80016e6:	0023      	movs	r3, r4
 80016e8:	3341      	adds	r3, #65	; 0x41
 80016ea:	701d      	strb	r5, [r3, #0]
 80016ec:	e7e0      	b.n	80016b0 <I2C_IsAcknowledgeFailed+0x38>
 80016ee:	46c0      	nop			; (mov r8, r8)
 80016f0:	fe00e800 	.word	0xfe00e800

080016f4 <I2C_WaitOnRXNEFlagUntilTimeout>:
 80016f4:	b5f8      	push	{r3, r4, r5, r6, r7, lr}
 80016f6:	0004      	movs	r4, r0
 80016f8:	000d      	movs	r5, r1
 80016fa:	0017      	movs	r7, r2
 80016fc:	2604      	movs	r6, #4
 80016fe:	6823      	ldr	r3, [r4, #0]
 8001700:	699b      	ldr	r3, [r3, #24]
 8001702:	4233      	tst	r3, r6
 8001704:	d111      	bne.n	800172a <I2C_WaitOnRXNEFlagUntilTimeout+0x36>
 8001706:	003a      	movs	r2, r7
 8001708:	0029      	movs	r1, r5
 800170a:	0020      	movs	r0, r4
 800170c:	f7ff ffb4 	bl	8001678 <I2C_IsAcknowledgeFailed>
 8001710:	2800      	cmp	r0, #0
 8001712:	d11a      	bne.n	800174a <I2C_WaitOnRXNEFlagUntilTimeout+0x56>
 8001714:	2120      	movs	r1, #32
 8001716:	6823      	ldr	r3, [r4, #0]
 8001718:	699a      	ldr	r2, [r3, #24]
 800171a:	420a      	tst	r2, r1
 800171c:	d017      	beq.n	800174e <I2C_WaitOnRXNEFlagUntilTimeout+0x5a>
 800171e:	699a      	ldr	r2, [r3, #24]
 8001720:	4232      	tst	r2, r6
 8001722:	d004      	beq.n	800172e <I2C_WaitOnRXNEFlagUntilTimeout+0x3a>
 8001724:	8d22      	ldrh	r2, [r4, #40]	; 0x28
 8001726:	2a00      	cmp	r2, #0
 8001728:	d001      	beq.n	800172e <I2C_WaitOnRXNEFlagUntilTimeout+0x3a>
 800172a:	2000      	movs	r0, #0
 800172c:	bdf8      	pop	{r3, r4, r5, r6, r7, pc}
 800172e:	2120      	movs	r1, #32
 8001730:	61d9      	str	r1, [r3, #28]
 8001732:	685a      	ldr	r2, [r3, #4]
 8001734:	480e      	ldr	r0, [pc, #56]	; (8001770 <I2C_WaitOnRXNEFlagUntilTimeout+0x7c>)
 8001736:	4002      	ands	r2, r0
 8001738:	605a      	str	r2, [r3, #4]
 800173a:	0022      	movs	r2, r4
 800173c:	2300      	movs	r3, #0
 800173e:	3241      	adds	r2, #65	; 0x41
 8001740:	6463      	str	r3, [r4, #68]	; 0x44
 8001742:	7011      	strb	r1, [r2, #0]
 8001744:	3440      	adds	r4, #64	; 0x40
 8001746:	7053      	strb	r3, [r2, #1]
 8001748:	7023      	strb	r3, [r4, #0]
 800174a:	2001      	movs	r0, #1
 800174c:	e7ee      	b.n	800172c <I2C_WaitOnRXNEFlagUntilTimeout+0x38>
 800174e:	f7ff fe67 	bl	8001420 <HAL_GetTick>
 8001752:	1bc0      	subs	r0, r0, r7
 8001754:	42a8      	cmp	r0, r5
 8001756:	d801      	bhi.n	800175c <I2C_WaitOnRXNEFlagUntilTimeout+0x68>
 8001758:	2d00      	cmp	r5, #0
 800175a:	d1d0      	bne.n	80016fe <I2C_WaitOnRXNEFlagUntilTimeout+0xa>
 800175c:	2220      	movs	r2, #32
 800175e:	6c63      	ldr	r3, [r4, #68]	; 0x44
 8001760:	4313      	orrs	r3, r2
 8001762:	6463      	str	r3, [r4, #68]	; 0x44
 8001764:	0023      	movs	r3, r4
 8001766:	3341      	adds	r3, #65	; 0x41
 8001768:	701a      	strb	r2, [r3, #0]
 800176a:	3440      	adds	r4, #64	; 0x40
 800176c:	2300      	movs	r3, #0
 800176e:	e7eb      	b.n	8001748 <I2C_WaitOnRXNEFlagUntilTimeout+0x54>
 8001770:	fe00e800 	.word	0xfe00e800

08001774 <I2C_WaitOnSTOPFlagUntilTimeout>:
 8001774:	b5f8      	push	{r3, r4, r5, r6, r7, lr}
 8001776:	0004      	movs	r4, r0
 8001778:	000d      	movs	r5, r1
 800177a:	0016      	movs	r6, r2
 800177c:	2720      	movs	r7, #32
 800177e:	6823      	ldr	r3, [r4, #0]
 8001780:	699b      	ldr	r3, [r3, #24]
 8001782:	423b      	tst	r3, r7
 8001784:	d001      	beq.n	800178a <I2C_WaitOnSTOPFlagUntilTimeout+0x16>
 8001786:	2000      	movs	r0, #0
 8001788:	bdf8      	pop	{r3, r4, r5, r6, r7, pc}
 800178a:	0032      	movs	r2, r6
 800178c:	0029      	movs	r1, r5
 800178e:	0020      	movs	r0, r4
 8001790:	f7ff ff72 	bl	8001678 <I2C_IsAcknowledgeFailed>
 8001794:	2800      	cmp	r0, #0
 8001796:	d113      	bne.n	80017c0 <I2C_WaitOnSTOPFlagUntilTimeout+0x4c>
 8001798:	f7ff fe42 	bl	8001420 <HAL_GetTick>
 800179c:	1b80      	subs	r0, r0, r6
 800179e:	42a8      	cmp	r0, r5
 80017a0:	d801      	bhi.n	80017a6 <I2C_WaitOnSTOPFlagUntilTimeout+0x32>
 80017a2:	2d00      	cmp	r5, #0
 80017a4:	d1eb      	bne.n	800177e <I2C_WaitOnSTOPFlagUntilTimeout+0xa>
 80017a6:	2220      	movs	r2, #32
 80017a8:	6c63      	ldr	r3, [r4, #68]	; 0x44
 80017aa:	4313      	orrs	r3, r2
 80017ac:	6463      	str	r3, [r4, #68]	; 0x44
 80017ae:	0023      	movs	r3, r4
 80017b0:	3341      	adds	r3, #65	; 0x41
 80017b2:	701a      	strb	r2, [r3, #0]
 80017b4:	0022      	movs	r2, r4
 80017b6:	2300      	movs	r3, #0
 80017b8:	3242      	adds	r2, #66	; 0x42
 80017ba:	3440      	adds	r4, #64	; 0x40
 80017bc:	7013      	strb	r3, [r2, #0]
 80017be:	7023      	strb	r3, [r4, #0]
 80017c0:	2001      	movs	r0, #1
 80017c2:	e7e1      	b.n	8001788 <I2C_WaitOnSTOPFlagUntilTimeout+0x14>

080017c4 <I2C_WaitOnFlagUntilTimeout>:
 80017c4:	b5f8      	push	{r3, r4, r5, r6, r7, lr}
 80017c6:	0004      	movs	r4, r0
 80017c8:	000e      	movs	r6, r1
 80017ca:	0017      	movs	r7, r2
 80017cc:	001d      	movs	r5, r3
 80017ce:	6822      	ldr	r2, [r4, #0]
 80017d0:	6993      	ldr	r3, [r2, #24]
 80017d2:	4033      	ands	r3, r6
 80017d4:	1b9b      	subs	r3, r3, r6
 80017d6:	4259      	negs	r1, r3
 80017d8:	414b      	adcs	r3, r1
 80017da:	42bb      	cmp	r3, r7
 80017dc:	d001      	beq.n	80017e2 <I2C_WaitOnFlagUntilTimeout+0x1e>
 80017de:	2000      	movs	r0, #0
 80017e0:	e017      	b.n	8001812 <I2C_WaitOnFlagUntilTimeout+0x4e>
 80017e2:	1c6b      	adds	r3, r5, #1
 80017e4:	d0f4      	beq.n	80017d0 <I2C_WaitOnFlagUntilTimeout+0xc>
 80017e6:	f7ff fe1b 	bl	8001420 <HAL_GetTick>
 80017ea:	9b06      	ldr	r3, [sp, #24]
 80017ec:	1ac0      	subs	r0, r0, r3
 80017ee:	42a8      	cmp	r0, r5
 80017f0:	d801      	bhi.n	80017f6 <I2C_WaitOnFlagUntilTimeout+0x32>
 80017f2:	2d00      	cmp	r5, #0
 80017f4:	d1eb      	bne.n	80017ce <I2C_WaitOnFlagUntilTimeout+0xa>
 80017f6:	2220      	movs	r2, #32
 80017f8:	6c63      	ldr	r3, [r4, #68]	; 0x44
 80017fa:	2001      	movs	r0, #1
 80017fc:	4313      	orrs	r3, r2
 80017fe:	6463      	str	r3, [r4, #68]	; 0x44
 8001800:	0023      	movs	r3, r4
 8001802:	3341      	adds	r3, #65	; 0x41
 8001804:	701a      	strb	r2, [r3, #0]
 8001806:	0022      	movs	r2, r4
 8001808:	2300      	movs	r3, #0
 800180a:	3242      	adds	r2, #66	; 0x42
 800180c:	3440      	adds	r4, #64	; 0x40
 800180e:	7013      	strb	r3, [r2, #0]
 8001810:	7023      	strb	r3, [r4, #0]
 8001812:	bdf8      	pop	{r3, r4, r5, r6, r7, pc}

08001814 <I2C_WaitOnTXISFlagUntilTimeout>:
 8001814:	b5f8      	push	{r3, r4, r5, r6, r7, lr}
 8001816:	0004      	movs	r4, r0
 8001818:	000d      	movs	r5, r1
 800181a:	0016      	movs	r6, r2
 800181c:	2702      	movs	r7, #2
 800181e:	6823      	ldr	r3, [r4, #0]
 8001820:	699b      	ldr	r3, [r3, #24]
 8001822:	423b      	tst	r3, r7
 8001824:	d001      	beq.n	800182a <I2C_WaitOnTXISFlagUntilTimeout+0x16>
 8001826:	2000      	movs	r0, #0
 8001828:	bdf8      	pop	{r3, r4, r5, r6, r7, pc}
 800182a:	0032      	movs	r2, r6
 800182c:	0029      	movs	r1, r5
 800182e:	0020      	movs	r0, r4
 8001830:	f7ff ff22 	bl	8001678 <I2C_IsAcknowledgeFailed>
 8001834:	2800      	cmp	r0, #0
 8001836:	d115      	bne.n	8001864 <I2C_WaitOnTXISFlagUntilTimeout+0x50>
 8001838:	1c6b      	adds	r3, r5, #1
 800183a:	d0f0      	beq.n	800181e <I2C_WaitOnTXISFlagUntilTimeout+0xa>
 800183c:	f7ff fdf0 	bl	8001420 <HAL_GetTick>
 8001840:	1b80      	subs	r0, r0, r6
 8001842:	42a8      	cmp	r0, r5
 8001844:	d801      	bhi.n	800184a <I2C_WaitOnTXISFlagUntilTimeout+0x36>
 8001846:	2d00      	cmp	r5, #0
 8001848:	d1e9      	bne.n	800181e <I2C_WaitOnTXISFlagUntilTimeout+0xa>
 800184a:	2220      	movs	r2, #32
 800184c:	6c63      	ldr	r3, [r4, #68]	; 0x44
 800184e:	4313      	orrs	r3, r2
 8001850:	6463      	str	r3, [r4, #68]	; 0x44
 8001852:	0023      	movs	r3, r4
 8001854:	3341      	adds	r3, #65	; 0x41
 8001856:	701a      	strb	r2, [r3, #0]
 8001858:	0022      	movs	r2, r4
 800185a:	2300      	movs	r3, #0
 800185c:	3242      	adds	r2, #66	; 0x42
 800185e:	3440      	adds	r4, #64	; 0x40
 8001860:	7013      	strb	r3, [r2, #0]
 8001862:	7023      	strb	r3, [r4, #0]
 8001864:	2001      	movs	r0, #1
 8001866:	e7df      	b.n	8001828 <I2C_WaitOnTXISFlagUntilTimeout+0x14>

08001868 <HAL_I2C_Init>:
 8001868:	b570      	push	{r4, r5, r6, lr}
 800186a:	0004      	movs	r4, r0
 800186c:	2001      	movs	r0, #1
 800186e:	2c00      	cmp	r4, #0
 8001870:	d03f      	beq.n	80018f2 <HAL_I2C_Init+0x8a>
 8001872:	0025      	movs	r5, r4
 8001874:	3541      	adds	r5, #65	; 0x41
 8001876:	782b      	ldrb	r3, [r5, #0]
 8001878:	b2db      	uxtb	r3, r3
 800187a:	2b00      	cmp	r3, #0
 800187c:	d105      	bne.n	800188a <HAL_I2C_Init+0x22>
 800187e:	0022      	movs	r2, r4
 8001880:	3240      	adds	r2, #64	; 0x40
 8001882:	7013      	strb	r3, [r2, #0]
 8001884:	0020      	movs	r0, r4
 8001886:	f7ff fbed 	bl	8001064 <HAL_I2C_MspInit>
 800188a:	2324      	movs	r3, #36	; 0x24
 800188c:	2101      	movs	r1, #1
 800188e:	702b      	strb	r3, [r5, #0]
 8001890:	6823      	ldr	r3, [r4, #0]
 8001892:	68e0      	ldr	r0, [r4, #12]
 8001894:	681a      	ldr	r2, [r3, #0]
 8001896:	68a6      	ldr	r6, [r4, #8]
 8001898:	438a      	bics	r2, r1
 800189a:	601a      	str	r2, [r3, #0]
 800189c:	6861      	ldr	r1, [r4, #4]
 800189e:	4a1a      	ldr	r2, [pc, #104]	; (8001908 <HAL_I2C_Init+0xa0>)
 80018a0:	400a      	ands	r2, r1
 80018a2:	611a      	str	r2, [r3, #16]
 80018a4:	6899      	ldr	r1, [r3, #8]
 80018a6:	4a19      	ldr	r2, [pc, #100]	; (800190c <HAL_I2C_Init+0xa4>)
 80018a8:	4011      	ands	r1, r2
 80018aa:	6099      	str	r1, [r3, #8]
 80018ac:	2801      	cmp	r0, #1
 80018ae:	d121      	bne.n	80018f4 <HAL_I2C_Init+0x8c>
 80018b0:	2180      	movs	r1, #128	; 0x80
 80018b2:	0209      	lsls	r1, r1, #8
 80018b4:	4331      	orrs	r1, r6
 80018b6:	6099      	str	r1, [r3, #8]
 80018b8:	6858      	ldr	r0, [r3, #4]
 80018ba:	4915      	ldr	r1, [pc, #84]	; (8001910 <HAL_I2C_Init+0xa8>)
 80018bc:	4301      	orrs	r1, r0
 80018be:	6059      	str	r1, [r3, #4]
 80018c0:	68d9      	ldr	r1, [r3, #12]
 80018c2:	2000      	movs	r0, #0
 80018c4:	400a      	ands	r2, r1
 80018c6:	60da      	str	r2, [r3, #12]
 80018c8:	6961      	ldr	r1, [r4, #20]
 80018ca:	6922      	ldr	r2, [r4, #16]
 80018cc:	430a      	orrs	r2, r1
 80018ce:	69a1      	ldr	r1, [r4, #24]
 80018d0:	0209      	lsls	r1, r1, #8
 80018d2:	430a      	orrs	r2, r1
 80018d4:	60da      	str	r2, [r3, #12]
 80018d6:	6a21      	ldr	r1, [r4, #32]
 80018d8:	69e2      	ldr	r2, [r4, #28]
 80018da:	430a      	orrs	r2, r1
 80018dc:	601a      	str	r2, [r3, #0]
 80018de:	2201      	movs	r2, #1
 80018e0:	6819      	ldr	r1, [r3, #0]
 80018e2:	430a      	orrs	r2, r1
 80018e4:	601a      	str	r2, [r3, #0]
 80018e6:	2320      	movs	r3, #32
 80018e8:	6460      	str	r0, [r4, #68]	; 0x44
 80018ea:	702b      	strb	r3, [r5, #0]
 80018ec:	6320      	str	r0, [r4, #48]	; 0x30
 80018ee:	3442      	adds	r4, #66	; 0x42
 80018f0:	7020      	strb	r0, [r4, #0]
 80018f2:	bd70      	pop	{r4, r5, r6, pc}
 80018f4:	2184      	movs	r1, #132	; 0x84
 80018f6:	0209      	lsls	r1, r1, #8
 80018f8:	4331      	orrs	r1, r6
 80018fa:	6099      	str	r1, [r3, #8]
 80018fc:	2802      	cmp	r0, #2
 80018fe:	d1db      	bne.n	80018b8 <HAL_I2C_Init+0x50>
 8001900:	2180      	movs	r1, #128	; 0x80
 8001902:	0109      	lsls	r1, r1, #4
 8001904:	6059      	str	r1, [r3, #4]
 8001906:	e7d7      	b.n	80018b8 <HAL_I2C_Init+0x50>
 8001908:	f0ffffff 	.word	0xf0ffffff
 800190c:	ffff7fff 	.word	0xffff7fff
 8001910:	02008000 	.word	0x02008000

08001914 <HAL_I2C_Master_Transmit>:
 8001914:	b5f0      	push	{r4, r5, r6, r7, lr}
 8001916:	0005      	movs	r5, r0
 8001918:	b087      	sub	sp, #28
 800191a:	9103      	str	r1, [sp, #12]
 800191c:	9204      	str	r2, [sp, #16]
 800191e:	9305      	str	r3, [sp, #20]
 8001920:	3541      	adds	r5, #65	; 0x41
 8001922:	782b      	ldrb	r3, [r5, #0]
 8001924:	0004      	movs	r4, r0
 8001926:	2002      	movs	r0, #2
 8001928:	2b20      	cmp	r3, #32
 800192a:	d114      	bne.n	8001956 <HAL_I2C_Master_Transmit+0x42>
 800192c:	0023      	movs	r3, r4
 800192e:	3340      	adds	r3, #64	; 0x40
 8001930:	781a      	ldrb	r2, [r3, #0]
 8001932:	2a01      	cmp	r2, #1
 8001934:	d00f      	beq.n	8001956 <HAL_I2C_Master_Transmit+0x42>
 8001936:	2601      	movs	r6, #1
 8001938:	701e      	strb	r6, [r3, #0]
 800193a:	f7ff fd71 	bl	8001420 <HAL_GetTick>
 800193e:	2180      	movs	r1, #128	; 0x80
 8001940:	0007      	movs	r7, r0
 8001942:	9000      	str	r0, [sp, #0]
 8001944:	2319      	movs	r3, #25
 8001946:	0032      	movs	r2, r6
 8001948:	0209      	lsls	r1, r1, #8
 800194a:	0020      	movs	r0, r4
 800194c:	f7ff ff3a 	bl	80017c4 <I2C_WaitOnFlagUntilTimeout>
 8001950:	2800      	cmp	r0, #0
 8001952:	d002      	beq.n	800195a <HAL_I2C_Master_Transmit+0x46>
 8001954:	2001      	movs	r0, #1
 8001956:	b007      	add	sp, #28
 8001958:	bdf0      	pop	{r4, r5, r6, r7, pc}
 800195a:	2321      	movs	r3, #33	; 0x21
 800195c:	702b      	strb	r3, [r5, #0]
 800195e:	0025      	movs	r5, r4
 8001960:	3b11      	subs	r3, #17
 8001962:	3542      	adds	r5, #66	; 0x42
 8001964:	702b      	strb	r3, [r5, #0]
 8001966:	9b04      	ldr	r3, [sp, #16]
 8001968:	6460      	str	r0, [r4, #68]	; 0x44
 800196a:	6263      	str	r3, [r4, #36]	; 0x24
 800196c:	9b05      	ldr	r3, [sp, #20]
 800196e:	6360      	str	r0, [r4, #52]	; 0x34
 8001970:	8563      	strh	r3, [r4, #42]	; 0x2a
 8001972:	8d62      	ldrh	r2, [r4, #42]	; 0x2a
 8001974:	4b30      	ldr	r3, [pc, #192]	; (8001a38 <HAL_I2C_Master_Transmit+0x124>)
 8001976:	2aff      	cmp	r2, #255	; 0xff
 8001978:	d921      	bls.n	80019be <HAL_I2C_Master_Transmit+0xaa>
 800197a:	22ff      	movs	r2, #255	; 0xff
 800197c:	8522      	strh	r2, [r4, #40]	; 0x28
 800197e:	9300      	str	r3, [sp, #0]
 8001980:	2380      	movs	r3, #128	; 0x80
 8001982:	045b      	lsls	r3, r3, #17
 8001984:	9903      	ldr	r1, [sp, #12]
 8001986:	0020      	movs	r0, r4
 8001988:	f7ff fe62 	bl	8001650 <I2C_TransferConfig>
 800198c:	26ff      	movs	r6, #255	; 0xff
 800198e:	8d63      	ldrh	r3, [r4, #42]	; 0x2a
 8001990:	003a      	movs	r2, r7
 8001992:	990c      	ldr	r1, [sp, #48]	; 0x30
 8001994:	0020      	movs	r0, r4
 8001996:	2b00      	cmp	r3, #0
 8001998:	d119      	bne.n	80019ce <HAL_I2C_Master_Transmit+0xba>
 800199a:	f7ff feeb 	bl	8001774 <I2C_WaitOnSTOPFlagUntilTimeout>
 800199e:	2800      	cmp	r0, #0
 80019a0:	d1d8      	bne.n	8001954 <HAL_I2C_Master_Transmit+0x40>
 80019a2:	2120      	movs	r1, #32
 80019a4:	6823      	ldr	r3, [r4, #0]
 80019a6:	4e25      	ldr	r6, [pc, #148]	; (8001a3c <HAL_I2C_Master_Transmit+0x128>)
 80019a8:	61d9      	str	r1, [r3, #28]
 80019aa:	685a      	ldr	r2, [r3, #4]
 80019ac:	4032      	ands	r2, r6
 80019ae:	605a      	str	r2, [r3, #4]
 80019b0:	0023      	movs	r3, r4
 80019b2:	3440      	adds	r4, #64	; 0x40
 80019b4:	3341      	adds	r3, #65	; 0x41
 80019b6:	7019      	strb	r1, [r3, #0]
 80019b8:	7028      	strb	r0, [r5, #0]
 80019ba:	7020      	strb	r0, [r4, #0]
 80019bc:	e7cb      	b.n	8001956 <HAL_I2C_Master_Transmit+0x42>
 80019be:	8d62      	ldrh	r2, [r4, #42]	; 0x2a
 80019c0:	b292      	uxth	r2, r2
 80019c2:	8522      	strh	r2, [r4, #40]	; 0x28
 80019c4:	9300      	str	r3, [sp, #0]
 80019c6:	2380      	movs	r3, #128	; 0x80
 80019c8:	b2d2      	uxtb	r2, r2
 80019ca:	049b      	lsls	r3, r3, #18
 80019cc:	e7da      	b.n	8001984 <HAL_I2C_Master_Transmit+0x70>
 80019ce:	f7ff ff21 	bl	8001814 <I2C_WaitOnTXISFlagUntilTimeout>
 80019d2:	2800      	cmp	r0, #0
 80019d4:	d1be      	bne.n	8001954 <HAL_I2C_Master_Transmit+0x40>
 80019d6:	6a63      	ldr	r3, [r4, #36]	; 0x24
 80019d8:	6822      	ldr	r2, [r4, #0]
 80019da:	7819      	ldrb	r1, [r3, #0]
 80019dc:	3301      	adds	r3, #1
 80019de:	6291      	str	r1, [r2, #40]	; 0x28
 80019e0:	6263      	str	r3, [r4, #36]	; 0x24
 80019e2:	8d63      	ldrh	r3, [r4, #42]	; 0x2a
 80019e4:	8d22      	ldrh	r2, [r4, #40]	; 0x28
 80019e6:	3b01      	subs	r3, #1
 80019e8:	b29b      	uxth	r3, r3
 80019ea:	8563      	strh	r3, [r4, #42]	; 0x2a
 80019ec:	3a01      	subs	r2, #1
 80019ee:	8d63      	ldrh	r3, [r4, #42]	; 0x2a
 80019f0:	b292      	uxth	r2, r2
 80019f2:	8522      	strh	r2, [r4, #40]	; 0x28
 80019f4:	2b00      	cmp	r3, #0
 80019f6:	d0ca      	beq.n	800198e <HAL_I2C_Master_Transmit+0x7a>
 80019f8:	2a00      	cmp	r2, #0
 80019fa:	d1c8      	bne.n	800198e <HAL_I2C_Master_Transmit+0x7a>
 80019fc:	9700      	str	r7, [sp, #0]
 80019fe:	9b0c      	ldr	r3, [sp, #48]	; 0x30
 8001a00:	2180      	movs	r1, #128	; 0x80
 8001a02:	0020      	movs	r0, r4
 8001a04:	f7ff fede 	bl	80017c4 <I2C_WaitOnFlagUntilTimeout>
 8001a08:	2800      	cmp	r0, #0
 8001a0a:	d1a3      	bne.n	8001954 <HAL_I2C_Master_Transmit+0x40>
 8001a0c:	8d63      	ldrh	r3, [r4, #42]	; 0x2a
 8001a0e:	2bff      	cmp	r3, #255	; 0xff
 8001a10:	d909      	bls.n	8001a26 <HAL_I2C_Master_Transmit+0x112>
 8001a12:	2380      	movs	r3, #128	; 0x80
 8001a14:	22ff      	movs	r2, #255	; 0xff
 8001a16:	8526      	strh	r6, [r4, #40]	; 0x28
 8001a18:	045b      	lsls	r3, r3, #17
 8001a1a:	9000      	str	r0, [sp, #0]
 8001a1c:	9903      	ldr	r1, [sp, #12]
 8001a1e:	0020      	movs	r0, r4
 8001a20:	f7ff fe16 	bl	8001650 <I2C_TransferConfig>
 8001a24:	e7b3      	b.n	800198e <HAL_I2C_Master_Transmit+0x7a>
 8001a26:	2380      	movs	r3, #128	; 0x80
 8001a28:	8d62      	ldrh	r2, [r4, #42]	; 0x2a
 8001a2a:	049b      	lsls	r3, r3, #18
 8001a2c:	b292      	uxth	r2, r2
 8001a2e:	8522      	strh	r2, [r4, #40]	; 0x28
 8001a30:	b2d2      	uxtb	r2, r2
 8001a32:	9000      	str	r0, [sp, #0]
 8001a34:	e7f2      	b.n	8001a1c <HAL_I2C_Master_Transmit+0x108>
 8001a36:	46c0      	nop			; (mov r8, r8)
 8001a38:	80002000 	.word	0x80002000
 8001a3c:	fe00e800 	.word	0xfe00e800

08001a40 <HAL_I2C_Master_Receive>:
 8001a40:	b5f0      	push	{r4, r5, r6, r7, lr}
 8001a42:	0005      	movs	r5, r0
 8001a44:	b087      	sub	sp, #28
 8001a46:	9103      	str	r1, [sp, #12]
 8001a48:	9204      	str	r2, [sp, #16]
 8001a4a:	9305      	str	r3, [sp, #20]
 8001a4c:	3541      	adds	r5, #65	; 0x41
 8001a4e:	782b      	ldrb	r3, [r5, #0]
 8001a50:	0004      	movs	r4, r0
 8001a52:	2002      	movs	r0, #2
 8001a54:	2b20      	cmp	r3, #32
 8001a56:	d114      	bne.n	8001a82 <HAL_I2C_Master_Receive+0x42>
 8001a58:	0023      	movs	r3, r4
 8001a5a:	3340      	adds	r3, #64	; 0x40
 8001a5c:	781a      	ldrb	r2, [r3, #0]
 8001a5e:	2a01      	cmp	r2, #1
 8001a60:	d00f      	beq.n	8001a82 <HAL_I2C_Master_Receive+0x42>
 8001a62:	2601      	movs	r6, #1
 8001a64:	701e      	strb	r6, [r3, #0]
 8001a66:	f7ff fcdb 	bl	8001420 <HAL_GetTick>
 8001a6a:	2180      	movs	r1, #128	; 0x80
 8001a6c:	0007      	movs	r7, r0
 8001a6e:	9000      	str	r0, [sp, #0]
 8001a70:	2319      	movs	r3, #25
 8001a72:	0032      	movs	r2, r6
 8001a74:	0209      	lsls	r1, r1, #8
 8001a76:	0020      	movs	r0, r4
 8001a78:	f7ff fea4 	bl	80017c4 <I2C_WaitOnFlagUntilTimeout>
 8001a7c:	2800      	cmp	r0, #0
 8001a7e:	d002      	beq.n	8001a86 <HAL_I2C_Master_Receive+0x46>
 8001a80:	2001      	movs	r0, #1
 8001a82:	b007      	add	sp, #28
 8001a84:	bdf0      	pop	{r4, r5, r6, r7, pc}
 8001a86:	2322      	movs	r3, #34	; 0x22
 8001a88:	702b      	strb	r3, [r5, #0]
 8001a8a:	0025      	movs	r5, r4
 8001a8c:	3b12      	subs	r3, #18
 8001a8e:	3542      	adds	r5, #66	; 0x42
 8001a90:	702b      	strb	r3, [r5, #0]
 8001a92:	9b04      	ldr	r3, [sp, #16]
 8001a94:	6460      	str	r0, [r4, #68]	; 0x44
 8001a96:	6263      	str	r3, [r4, #36]	; 0x24
 8001a98:	9b05      	ldr	r3, [sp, #20]
 8001a9a:	6360      	str	r0, [r4, #52]	; 0x34
 8001a9c:	8563      	strh	r3, [r4, #42]	; 0x2a
 8001a9e:	8d62      	ldrh	r2, [r4, #42]	; 0x2a
 8001aa0:	4b30      	ldr	r3, [pc, #192]	; (8001b64 <HAL_I2C_Master_Receive+0x124>)
 8001aa2:	2aff      	cmp	r2, #255	; 0xff
 8001aa4:	d921      	bls.n	8001aea <HAL_I2C_Master_Receive+0xaa>
 8001aa6:	22ff      	movs	r2, #255	; 0xff
 8001aa8:	8522      	strh	r2, [r4, #40]	; 0x28
 8001aaa:	9300      	str	r3, [sp, #0]
 8001aac:	2380      	movs	r3, #128	; 0x80
 8001aae:	045b      	lsls	r3, r3, #17
 8001ab0:	9903      	ldr	r1, [sp, #12]
 8001ab2:	0020      	movs	r0, r4
 8001ab4:	f7ff fdcc 	bl	8001650 <I2C_TransferConfig>
 8001ab8:	26ff      	movs	r6, #255	; 0xff
 8001aba:	8d63      	ldrh	r3, [r4, #42]	; 0x2a
 8001abc:	003a      	movs	r2, r7
 8001abe:	990c      	ldr	r1, [sp, #48]	; 0x30
 8001ac0:	0020      	movs	r0, r4
 8001ac2:	2b00      	cmp	r3, #0
 8001ac4:	d119      	bne.n	8001afa <HAL_I2C_Master_Receive+0xba>
 8001ac6:	f7ff fe55 	bl	8001774 <I2C_WaitOnSTOPFlagUntilTimeout>
 8001aca:	2800      	cmp	r0, #0
 8001acc:	d1d8      	bne.n	8001a80 <HAL_I2C_Master_Receive+0x40>
 8001ace:	2120      	movs	r1, #32
 8001ad0:	6823      	ldr	r3, [r4, #0]
 8001ad2:	4e25      	ldr	r6, [pc, #148]	; (8001b68 <HAL_I2C_Master_Receive+0x128>)
 8001ad4:	61d9      	str	r1, [r3, #28]
 8001ad6:	685a      	ldr	r2, [r3, #4]
 8001ad8:	4032      	ands	r2, r6
 8001ada:	605a      	str	r2, [r3, #4]
 8001adc:	0023      	movs	r3, r4
 8001ade:	3440      	adds	r4, #64	; 0x40
 8001ae0:	3341      	adds	r3, #65	; 0x41
 8001ae2:	7019      	strb	r1, [r3, #0]
 8001ae4:	7028      	strb	r0, [r5, #0]
 8001ae6:	7020      	strb	r0, [r4, #0]
 8001ae8:	e7cb      	b.n	8001a82 <HAL_I2C_Master_Receive+0x42>
 8001aea:	8d62      	ldrh	r2, [r4, #42]	; 0x2a
 8001aec:	b292      	uxth	r2, r2
 8001aee:	8522      	strh	r2, [r4, #40]	; 0x28
 8001af0:	9300      	str	r3, [sp, #0]
 8001af2:	2380      	movs	r3, #128	; 0x80
 8001af4:	b2d2      	uxtb	r2, r2
 8001af6:	049b      	lsls	r3, r3, #18
 8001af8:	e7da      	b.n	8001ab0 <HAL_I2C_Master_Receive+0x70>
 8001afa:	f7ff fdfb 	bl	80016f4 <I2C_WaitOnRXNEFlagUntilTimeout>
 8001afe:	2800      	cmp	r0, #0
 8001b00:	d1be      	bne.n	8001a80 <HAL_I2C_Master_Receive+0x40>
 8001b02:	6823      	ldr	r3, [r4, #0]
 8001b04:	6a62      	ldr	r2, [r4, #36]	; 0x24
 8001b06:	6a5b      	ldr	r3, [r3, #36]	; 0x24
 8001b08:	7013      	strb	r3, [r2, #0]
 8001b0a:	6a63      	ldr	r3, [r4, #36]	; 0x24
 8001b0c:	8d22      	ldrh	r2, [r4, #40]	; 0x28
 8001b0e:	3301      	adds	r3, #1
 8001b10:	6263      	str	r3, [r4, #36]	; 0x24
 8001b12:	8d63      	ldrh	r3, [r4, #42]	; 0x2a
 8001b14:	3a01      	subs	r2, #1
 8001b16:	3b01      	subs	r3, #1
 8001b18:	b29b      	uxth	r3, r3
 8001b1a:	8563      	strh	r3, [r4, #42]	; 0x2a
 8001b1c:	8d63      	ldrh	r3, [r4, #42]	; 0x2a
 8001b1e:	b292      	uxth	r2, r2
 8001b20:	8522      	strh	r2, [r4, #40]	; 0x28
 8001b22:	2b00      	cmp	r3, #0
 8001b24:	d0c9      	beq.n	8001aba <HAL_I2C_Master_Receive+0x7a>
 8001b26:	2a00      	cmp	r2, #0
 8001b28:	d1c7      	bne.n	8001aba <HAL_I2C_Master_Receive+0x7a>
 8001b2a:	9700      	str	r7, [sp, #0]
 8001b2c:	9b0c      	ldr	r3, [sp, #48]	; 0x30
 8001b2e:	2180      	movs	r1, #128	; 0x80
 8001b30:	0020      	movs	r0, r4
 8001b32:	f7ff fe47 	bl	80017c4 <I2C_WaitOnFlagUntilTimeout>
 8001b36:	2800      	cmp	r0, #0
 8001b38:	d1a2      	bne.n	8001a80 <HAL_I2C_Master_Receive+0x40>
 8001b3a:	8d63      	ldrh	r3, [r4, #42]	; 0x2a
 8001b3c:	2bff      	cmp	r3, #255	; 0xff
 8001b3e:	d909      	bls.n	8001b54 <HAL_I2C_Master_Receive+0x114>
 8001b40:	2380      	movs	r3, #128	; 0x80
 8001b42:	22ff      	movs	r2, #255	; 0xff
 8001b44:	8526      	strh	r6, [r4, #40]	; 0x28
 8001b46:	045b      	lsls	r3, r3, #17
 8001b48:	9000      	str	r0, [sp, #0]
 8001b4a:	9903      	ldr	r1, [sp, #12]
 8001b4c:	0020      	movs	r0, r4
 8001b4e:	f7ff fd7f 	bl	8001650 <I2C_TransferConfig>
 8001b52:	e7b2      	b.n	8001aba <HAL_I2C_Master_Receive+0x7a>
 8001b54:	2380      	movs	r3, #128	; 0x80
 8001b56:	8d62      	ldrh	r2, [r4, #42]	; 0x2a
 8001b58:	049b      	lsls	r3, r3, #18
 8001b5a:	b292      	uxth	r2, r2
 8001b5c:	8522      	strh	r2, [r4, #40]	; 0x28
 8001b5e:	b2d2      	uxtb	r2, r2
 8001b60:	9000      	str	r0, [sp, #0]
 8001b62:	e7f2      	b.n	8001b4a <HAL_I2C_Master_Receive+0x10a>
 8001b64:	80002400 	.word	0x80002400
 8001b68:	fe00e800 	.word	0xfe00e800

08001b6c <HAL_I2CEx_ConfigAnalogFilter>:
 8001b6c:	b5f0      	push	{r4, r5, r6, r7, lr}
 8001b6e:	0004      	movs	r4, r0
 8001b70:	3441      	adds	r4, #65	; 0x41
 8001b72:	7822      	ldrb	r2, [r4, #0]
 8001b74:	0003      	movs	r3, r0
 8001b76:	b2d2      	uxtb	r2, r2
 8001b78:	2002      	movs	r0, #2
 8001b7a:	2a20      	cmp	r2, #32
 8001b7c:	d118      	bne.n	8001bb0 <HAL_I2CEx_ConfigAnalogFilter+0x44>
 8001b7e:	001d      	movs	r5, r3
 8001b80:	3540      	adds	r5, #64	; 0x40
 8001b82:	782e      	ldrb	r6, [r5, #0]
 8001b84:	2e01      	cmp	r6, #1
 8001b86:	d013      	beq.n	8001bb0 <HAL_I2CEx_ConfigAnalogFilter+0x44>
 8001b88:	681b      	ldr	r3, [r3, #0]
 8001b8a:	3022      	adds	r0, #34	; 0x22
 8001b8c:	7020      	strb	r0, [r4, #0]
 8001b8e:	681e      	ldr	r6, [r3, #0]
 8001b90:	3823      	subs	r0, #35	; 0x23
 8001b92:	4386      	bics	r6, r0
 8001b94:	601e      	str	r6, [r3, #0]
 8001b96:	681e      	ldr	r6, [r3, #0]
 8001b98:	4f06      	ldr	r7, [pc, #24]	; (8001bb4 <HAL_I2CEx_ConfigAnalogFilter+0x48>)
 8001b9a:	403e      	ands	r6, r7
 8001b9c:	601e      	str	r6, [r3, #0]
 8001b9e:	681e      	ldr	r6, [r3, #0]
 8001ba0:	4331      	orrs	r1, r6
 8001ba2:	6019      	str	r1, [r3, #0]
 8001ba4:	6819      	ldr	r1, [r3, #0]
 8001ba6:	4308      	orrs	r0, r1
 8001ba8:	6018      	str	r0, [r3, #0]
 8001baa:	2000      	movs	r0, #0
 8001bac:	7022      	strb	r2, [r4, #0]
 8001bae:	7028      	strb	r0, [r5, #0]
 8001bb0:	bdf0      	pop	{r4, r5, r6, r7, pc}
 8001bb2:	46c0      	nop			; (mov r8, r8)
 8001bb4:	ffffefff 	.word	0xffffefff

08001bb8 <HAL_I2CEx_ConfigDigitalFilter>:
 8001bb8:	b5f0      	push	{r4, r5, r6, r7, lr}
 8001bba:	0005      	movs	r5, r0
 8001bbc:	3541      	adds	r5, #65	; 0x41
 8001bbe:	782a      	ldrb	r2, [r5, #0]
 8001bc0:	0003      	movs	r3, r0
 8001bc2:	b2d2      	uxtb	r2, r2
 8001bc4:	2002      	movs	r0, #2
 8001bc6:	2a20      	cmp	r2, #32
 8001bc8:	d117      	bne.n	8001bfa <HAL_I2CEx_ConfigDigitalFilter+0x42>
 8001bca:	001c      	movs	r4, r3
 8001bcc:	3440      	adds	r4, #64	; 0x40
 8001bce:	7826      	ldrb	r6, [r4, #0]
 8001bd0:	2e01      	cmp	r6, #1
 8001bd2:	d012      	beq.n	8001bfa <HAL_I2CEx_ConfigDigitalFilter+0x42>
 8001bd4:	681b      	ldr	r3, [r3, #0]
 8001bd6:	3022      	adds	r0, #34	; 0x22
 8001bd8:	7028      	strb	r0, [r5, #0]
 8001bda:	681e      	ldr	r6, [r3, #0]
 8001bdc:	3823      	subs	r0, #35	; 0x23
 8001bde:	4386      	bics	r6, r0
 8001be0:	601e      	str	r6, [r3, #0]
 8001be2:	681e      	ldr	r6, [r3, #0]
 8001be4:	4f05      	ldr	r7, [pc, #20]	; (8001bfc <HAL_I2CEx_ConfigDigitalFilter+0x44>)
 8001be6:	0209      	lsls	r1, r1, #8
 8001be8:	403e      	ands	r6, r7
 8001bea:	4331      	orrs	r1, r6
 8001bec:	6019      	str	r1, [r3, #0]
 8001bee:	6819      	ldr	r1, [r3, #0]
 8001bf0:	4308      	orrs	r0, r1
 8001bf2:	6018      	str	r0, [r3, #0]
 8001bf4:	2000      	movs	r0, #0
 8001bf6:	702a      	strb	r2, [r5, #0]
 8001bf8:	7020      	strb	r0, [r4, #0]
 8001bfa:	bdf0      	pop	{r4, r5, r6, r7, pc}
 8001bfc:	fffff0ff 	.word	0xfffff0ff

08001c00 <HAL_RCC_GetSysClockFreq>:
 8001c00:	220c      	movs	r2, #12
 8001c02:	4b19      	ldr	r3, [pc, #100]	; (8001c68 <HAL_RCC_GetSysClockFreq+0x68>)
 8001c04:	b510      	push	{r4, lr}
 8001c06:	68d9      	ldr	r1, [r3, #12]
 8001c08:	400a      	ands	r2, r1
 8001c0a:	2a08      	cmp	r2, #8
 8001c0c:	d029      	beq.n	8001c62 <HAL_RCC_GetSysClockFreq+0x62>
 8001c0e:	2a0c      	cmp	r2, #12
 8001c10:	d009      	beq.n	8001c26 <HAL_RCC_GetSysClockFreq+0x26>
 8001c12:	2a04      	cmp	r2, #4
 8001c14:	d11d      	bne.n	8001c52 <HAL_RCC_GetSysClockFreq+0x52>
 8001c16:	6818      	ldr	r0, [r3, #0]
 8001c18:	4b14      	ldr	r3, [pc, #80]	; (8001c6c <HAL_RCC_GetSysClockFreq+0x6c>)
 8001c1a:	06c0      	lsls	r0, r0, #27
 8001c1c:	17c0      	asrs	r0, r0, #31
 8001c1e:	4018      	ands	r0, r3
 8001c20:	4b13      	ldr	r3, [pc, #76]	; (8001c70 <HAL_RCC_GetSysClockFreq+0x70>)
 8001c22:	18c0      	adds	r0, r0, r3
 8001c24:	bd10      	pop	{r4, pc}
 8001c26:	028a      	lsls	r2, r1, #10
 8001c28:	4812      	ldr	r0, [pc, #72]	; (8001c74 <HAL_RCC_GetSysClockFreq+0x74>)
 8001c2a:	0f12      	lsrs	r2, r2, #28
 8001c2c:	5c82      	ldrb	r2, [r0, r2]
 8001c2e:	0209      	lsls	r1, r1, #8
 8001c30:	68d8      	ldr	r0, [r3, #12]
 8001c32:	0f89      	lsrs	r1, r1, #30
 8001c34:	3101      	adds	r1, #1
 8001c36:	03c0      	lsls	r0, r0, #15
 8001c38:	d504      	bpl.n	8001c44 <HAL_RCC_GetSysClockFreq+0x44>
 8001c3a:	480f      	ldr	r0, [pc, #60]	; (8001c78 <HAL_RCC_GetSysClockFreq+0x78>)
 8001c3c:	4350      	muls	r0, r2
 8001c3e:	f7fe fa6d 	bl	800011c <__udivsi3>
 8001c42:	e7ef      	b.n	8001c24 <HAL_RCC_GetSysClockFreq+0x24>
 8001c44:	681b      	ldr	r3, [r3, #0]
 8001c46:	06db      	lsls	r3, r3, #27
 8001c48:	d501      	bpl.n	8001c4e <HAL_RCC_GetSysClockFreq+0x4e>
 8001c4a:	480c      	ldr	r0, [pc, #48]	; (8001c7c <HAL_RCC_GetSysClockFreq+0x7c>)
 8001c4c:	e7f6      	b.n	8001c3c <HAL_RCC_GetSysClockFreq+0x3c>
 8001c4e:	4808      	ldr	r0, [pc, #32]	; (8001c70 <HAL_RCC_GetSysClockFreq+0x70>)
 8001c50:	e7f4      	b.n	8001c3c <HAL_RCC_GetSysClockFreq+0x3c>
 8001c52:	2080      	movs	r0, #128	; 0x80
 8001c54:	685b      	ldr	r3, [r3, #4]
 8001c56:	0200      	lsls	r0, r0, #8
 8001c58:	041b      	lsls	r3, r3, #16
 8001c5a:	0f5b      	lsrs	r3, r3, #29
 8001c5c:	3301      	adds	r3, #1
 8001c5e:	4098      	lsls	r0, r3
 8001c60:	e7e0      	b.n	8001c24 <HAL_RCC_GetSysClockFreq+0x24>
 8001c62:	4805      	ldr	r0, [pc, #20]	; (8001c78 <HAL_RCC_GetSysClockFreq+0x78>)
 8001c64:	e7de      	b.n	8001c24 <HAL_RCC_GetSysClockFreq+0x24>
 8001c66:	46c0      	nop			; (mov r8, r8)
 8001c68:	40021000 	.word	0x40021000
 8001c6c:	ff48e500 	.word	0xff48e500
 8001c70:	00f42400 	.word	0x00f42400
 8001c74:	08003738 	.word	0x08003738
 8001c78:	007a1200 	.word	0x007a1200
 8001c7c:	003d0900 	.word	0x003d0900

08001c80 <HAL_RCC_OscConfig>:
 8001c80:	b5f0      	push	{r4, r5, r6, r7, lr}
 8001c82:	0005      	movs	r5, r0
 8001c84:	b087      	sub	sp, #28
 8001c86:	2800      	cmp	r0, #0
 8001c88:	d102      	bne.n	8001c90 <HAL_RCC_OscConfig+0x10>
 8001c8a:	2001      	movs	r0, #1
 8001c8c:	b007      	add	sp, #28
 8001c8e:	bdf0      	pop	{r4, r5, r6, r7, pc}
 8001c90:	230c      	movs	r3, #12
 8001c92:	4cbc      	ldr	r4, [pc, #752]	; (8001f84 <HAL_RCC_OscConfig+0x304>)
 8001c94:	68e6      	ldr	r6, [r4, #12]
 8001c96:	68e2      	ldr	r2, [r4, #12]
 8001c98:	401e      	ands	r6, r3
 8001c9a:	2380      	movs	r3, #128	; 0x80
 8001c9c:	025b      	lsls	r3, r3, #9
 8001c9e:	401a      	ands	r2, r3
 8001ca0:	9201      	str	r2, [sp, #4]
 8001ca2:	6802      	ldr	r2, [r0, #0]
 8001ca4:	07d2      	lsls	r2, r2, #31
 8001ca6:	d43d      	bmi.n	8001d24 <HAL_RCC_OscConfig+0xa4>
 8001ca8:	682b      	ldr	r3, [r5, #0]
 8001caa:	079b      	lsls	r3, r3, #30
 8001cac:	d500      	bpl.n	8001cb0 <HAL_RCC_OscConfig+0x30>
 8001cae:	e083      	b.n	8001db8 <HAL_RCC_OscConfig+0x138>
 8001cb0:	682b      	ldr	r3, [r5, #0]
 8001cb2:	06db      	lsls	r3, r3, #27
 8001cb4:	d528      	bpl.n	8001d08 <HAL_RCC_OscConfig+0x88>
 8001cb6:	2e00      	cmp	r6, #0
 8001cb8:	d000      	beq.n	8001cbc <HAL_RCC_OscConfig+0x3c>
 8001cba:	e0d5      	b.n	8001e68 <HAL_RCC_OscConfig+0x1e8>
 8001cbc:	6823      	ldr	r3, [r4, #0]
 8001cbe:	059b      	lsls	r3, r3, #22
 8001cc0:	d502      	bpl.n	8001cc8 <HAL_RCC_OscConfig+0x48>
 8001cc2:	69ab      	ldr	r3, [r5, #24]
 8001cc4:	2b00      	cmp	r3, #0
 8001cc6:	d0e0      	beq.n	8001c8a <HAL_RCC_OscConfig+0xa>
 8001cc8:	6862      	ldr	r2, [r4, #4]
 8001cca:	49af      	ldr	r1, [pc, #700]	; (8001f88 <HAL_RCC_OscConfig+0x308>)
 8001ccc:	6a2b      	ldr	r3, [r5, #32]
 8001cce:	400a      	ands	r2, r1
 8001cd0:	431a      	orrs	r2, r3
 8001cd2:	6062      	str	r2, [r4, #4]
 8001cd4:	6861      	ldr	r1, [r4, #4]
 8001cd6:	69ea      	ldr	r2, [r5, #28]
 8001cd8:	0209      	lsls	r1, r1, #8
 8001cda:	0a09      	lsrs	r1, r1, #8
 8001cdc:	0612      	lsls	r2, r2, #24
 8001cde:	430a      	orrs	r2, r1
 8001ce0:	6062      	str	r2, [r4, #4]
 8001ce2:	2280      	movs	r2, #128	; 0x80
 8001ce4:	0b5b      	lsrs	r3, r3, #13
 8001ce6:	3301      	adds	r3, #1
 8001ce8:	0212      	lsls	r2, r2, #8
 8001cea:	409a      	lsls	r2, r3
 8001cec:	0013      	movs	r3, r2
 8001cee:	68e1      	ldr	r1, [r4, #12]
 8001cf0:	2000      	movs	r0, #0
 8001cf2:	060a      	lsls	r2, r1, #24
 8001cf4:	49a5      	ldr	r1, [pc, #660]	; (8001f8c <HAL_RCC_OscConfig+0x30c>)
 8001cf6:	0f12      	lsrs	r2, r2, #28
 8001cf8:	5c8a      	ldrb	r2, [r1, r2]
 8001cfa:	40d3      	lsrs	r3, r2
 8001cfc:	4aa4      	ldr	r2, [pc, #656]	; (8001f90 <HAL_RCC_OscConfig+0x310>)
 8001cfe:	6013      	str	r3, [r2, #0]
 8001d00:	f7ff fa72 	bl	80011e8 <HAL_InitTick>
 8001d04:	2800      	cmp	r0, #0
 8001d06:	d1c1      	bne.n	8001c8c <HAL_RCC_OscConfig+0xc>
 8001d08:	682b      	ldr	r3, [r5, #0]
 8001d0a:	071b      	lsls	r3, r3, #28
 8001d0c:	d500      	bpl.n	8001d10 <HAL_RCC_OscConfig+0x90>
 8001d0e:	e0e2      	b.n	8001ed6 <HAL_RCC_OscConfig+0x256>
 8001d10:	682b      	ldr	r3, [r5, #0]
 8001d12:	075b      	lsls	r3, r3, #29
 8001d14:	d500      	bpl.n	8001d18 <HAL_RCC_OscConfig+0x98>
 8001d16:	e104      	b.n	8001f22 <HAL_RCC_OscConfig+0x2a2>
 8001d18:	6a6b      	ldr	r3, [r5, #36]	; 0x24
 8001d1a:	2b00      	cmp	r3, #0
 8001d1c:	d000      	beq.n	8001d20 <HAL_RCC_OscConfig+0xa0>
 8001d1e:	e189      	b.n	8002034 <HAL_RCC_OscConfig+0x3b4>
 8001d20:	2000      	movs	r0, #0
 8001d22:	e7b3      	b.n	8001c8c <HAL_RCC_OscConfig+0xc>
 8001d24:	2e08      	cmp	r6, #8
 8001d26:	d004      	beq.n	8001d32 <HAL_RCC_OscConfig+0xb2>
 8001d28:	2e0c      	cmp	r6, #12
 8001d2a:	d109      	bne.n	8001d40 <HAL_RCC_OscConfig+0xc0>
 8001d2c:	9a01      	ldr	r2, [sp, #4]
 8001d2e:	2a00      	cmp	r2, #0
 8001d30:	d006      	beq.n	8001d40 <HAL_RCC_OscConfig+0xc0>
 8001d32:	6823      	ldr	r3, [r4, #0]
 8001d34:	039b      	lsls	r3, r3, #14
 8001d36:	d5b7      	bpl.n	8001ca8 <HAL_RCC_OscConfig+0x28>
 8001d38:	686b      	ldr	r3, [r5, #4]
 8001d3a:	2b00      	cmp	r3, #0
 8001d3c:	d1b4      	bne.n	8001ca8 <HAL_RCC_OscConfig+0x28>
 8001d3e:	e7a4      	b.n	8001c8a <HAL_RCC_OscConfig+0xa>
 8001d40:	686a      	ldr	r2, [r5, #4]
 8001d42:	429a      	cmp	r2, r3
 8001d44:	d111      	bne.n	8001d6a <HAL_RCC_OscConfig+0xea>
 8001d46:	6822      	ldr	r2, [r4, #0]
 8001d48:	4313      	orrs	r3, r2
 8001d4a:	6023      	str	r3, [r4, #0]
 8001d4c:	f7ff fb68 	bl	8001420 <HAL_GetTick>
 8001d50:	0007      	movs	r7, r0
 8001d52:	2280      	movs	r2, #128	; 0x80
 8001d54:	6823      	ldr	r3, [r4, #0]
 8001d56:	0292      	lsls	r2, r2, #10
 8001d58:	4213      	tst	r3, r2
 8001d5a:	d1a5      	bne.n	8001ca8 <HAL_RCC_OscConfig+0x28>
 8001d5c:	f7ff fb60 	bl	8001420 <HAL_GetTick>
 8001d60:	1bc0      	subs	r0, r0, r7
 8001d62:	2864      	cmp	r0, #100	; 0x64
 8001d64:	d9f5      	bls.n	8001d52 <HAL_RCC_OscConfig+0xd2>
 8001d66:	2003      	movs	r0, #3
 8001d68:	e790      	b.n	8001c8c <HAL_RCC_OscConfig+0xc>
 8001d6a:	21a0      	movs	r1, #160	; 0xa0
 8001d6c:	02c9      	lsls	r1, r1, #11
 8001d6e:	428a      	cmp	r2, r1
 8001d70:	d105      	bne.n	8001d7e <HAL_RCC_OscConfig+0xfe>
 8001d72:	2280      	movs	r2, #128	; 0x80
 8001d74:	6821      	ldr	r1, [r4, #0]
 8001d76:	02d2      	lsls	r2, r2, #11
 8001d78:	430a      	orrs	r2, r1
 8001d7a:	6022      	str	r2, [r4, #0]
 8001d7c:	e7e3      	b.n	8001d46 <HAL_RCC_OscConfig+0xc6>
 8001d7e:	6821      	ldr	r1, [r4, #0]
 8001d80:	4884      	ldr	r0, [pc, #528]	; (8001f94 <HAL_RCC_OscConfig+0x314>)
 8001d82:	4001      	ands	r1, r0
 8001d84:	6021      	str	r1, [r4, #0]
 8001d86:	6821      	ldr	r1, [r4, #0]
 8001d88:	400b      	ands	r3, r1
 8001d8a:	9305      	str	r3, [sp, #20]
 8001d8c:	9b05      	ldr	r3, [sp, #20]
 8001d8e:	4982      	ldr	r1, [pc, #520]	; (8001f98 <HAL_RCC_OscConfig+0x318>)
 8001d90:	6823      	ldr	r3, [r4, #0]
 8001d92:	400b      	ands	r3, r1
 8001d94:	6023      	str	r3, [r4, #0]
 8001d96:	2a00      	cmp	r2, #0
 8001d98:	d1d8      	bne.n	8001d4c <HAL_RCC_OscConfig+0xcc>
 8001d9a:	f7ff fb41 	bl	8001420 <HAL_GetTick>
 8001d9e:	0007      	movs	r7, r0
 8001da0:	2280      	movs	r2, #128	; 0x80
 8001da2:	6823      	ldr	r3, [r4, #0]
 8001da4:	0292      	lsls	r2, r2, #10
 8001da6:	4213      	tst	r3, r2
 8001da8:	d100      	bne.n	8001dac <HAL_RCC_OscConfig+0x12c>
 8001daa:	e77d      	b.n	8001ca8 <HAL_RCC_OscConfig+0x28>
 8001dac:	f7ff fb38 	bl	8001420 <HAL_GetTick>
 8001db0:	1bc0      	subs	r0, r0, r7
 8001db2:	2864      	cmp	r0, #100	; 0x64
 8001db4:	d9f4      	bls.n	8001da0 <HAL_RCC_OscConfig+0x120>
 8001db6:	e7d6      	b.n	8001d66 <HAL_RCC_OscConfig+0xe6>
 8001db8:	68ea      	ldr	r2, [r5, #12]
 8001dba:	2e04      	cmp	r6, #4
 8001dbc:	d004      	beq.n	8001dc8 <HAL_RCC_OscConfig+0x148>
 8001dbe:	2e0c      	cmp	r6, #12
 8001dc0:	d125      	bne.n	8001e0e <HAL_RCC_OscConfig+0x18e>
 8001dc2:	9b01      	ldr	r3, [sp, #4]
 8001dc4:	2b00      	cmp	r3, #0
 8001dc6:	d122      	bne.n	8001e0e <HAL_RCC_OscConfig+0x18e>
 8001dc8:	6823      	ldr	r3, [r4, #0]
 8001dca:	075b      	lsls	r3, r3, #29
 8001dcc:	d502      	bpl.n	8001dd4 <HAL_RCC_OscConfig+0x154>
 8001dce:	2a00      	cmp	r2, #0
 8001dd0:	d100      	bne.n	8001dd4 <HAL_RCC_OscConfig+0x154>
 8001dd2:	e75a      	b.n	8001c8a <HAL_RCC_OscConfig+0xa>
 8001dd4:	6861      	ldr	r1, [r4, #4]
 8001dd6:	692b      	ldr	r3, [r5, #16]
 8001dd8:	4870      	ldr	r0, [pc, #448]	; (8001f9c <HAL_RCC_OscConfig+0x31c>)
 8001dda:	021b      	lsls	r3, r3, #8
 8001ddc:	4001      	ands	r1, r0
 8001dde:	430b      	orrs	r3, r1
 8001de0:	2109      	movs	r1, #9
 8001de2:	6063      	str	r3, [r4, #4]
 8001de4:	6823      	ldr	r3, [r4, #0]
 8001de6:	438b      	bics	r3, r1
 8001de8:	4313      	orrs	r3, r2
 8001dea:	6023      	str	r3, [r4, #0]
 8001dec:	f7ff ff08 	bl	8001c00 <HAL_RCC_GetSysClockFreq>
 8001df0:	68e3      	ldr	r3, [r4, #12]
 8001df2:	4a66      	ldr	r2, [pc, #408]	; (8001f8c <HAL_RCC_OscConfig+0x30c>)
 8001df4:	061b      	lsls	r3, r3, #24
 8001df6:	0f1b      	lsrs	r3, r3, #28
 8001df8:	5cd3      	ldrb	r3, [r2, r3]
 8001dfa:	40d8      	lsrs	r0, r3
 8001dfc:	4b64      	ldr	r3, [pc, #400]	; (8001f90 <HAL_RCC_OscConfig+0x310>)
 8001dfe:	6018      	str	r0, [r3, #0]
 8001e00:	2000      	movs	r0, #0
 8001e02:	f7ff f9f1 	bl	80011e8 <HAL_InitTick>
 8001e06:	2800      	cmp	r0, #0
 8001e08:	d100      	bne.n	8001e0c <HAL_RCC_OscConfig+0x18c>
 8001e0a:	e751      	b.n	8001cb0 <HAL_RCC_OscConfig+0x30>
 8001e0c:	e73e      	b.n	8001c8c <HAL_RCC_OscConfig+0xc>
 8001e0e:	6823      	ldr	r3, [r4, #0]
 8001e10:	2a00      	cmp	r2, #0
 8001e12:	d018      	beq.n	8001e46 <HAL_RCC_OscConfig+0x1c6>
 8001e14:	2109      	movs	r1, #9
 8001e16:	438b      	bics	r3, r1
 8001e18:	4313      	orrs	r3, r2
 8001e1a:	6023      	str	r3, [r4, #0]
 8001e1c:	f7ff fb00 	bl	8001420 <HAL_GetTick>
 8001e20:	0007      	movs	r7, r0
 8001e22:	2204      	movs	r2, #4
 8001e24:	6823      	ldr	r3, [r4, #0]
 8001e26:	4213      	tst	r3, r2
 8001e28:	d007      	beq.n	8001e3a <HAL_RCC_OscConfig+0x1ba>
 8001e2a:	6862      	ldr	r2, [r4, #4]
 8001e2c:	692b      	ldr	r3, [r5, #16]
 8001e2e:	495b      	ldr	r1, [pc, #364]	; (8001f9c <HAL_RCC_OscConfig+0x31c>)
 8001e30:	021b      	lsls	r3, r3, #8
 8001e32:	400a      	ands	r2, r1
 8001e34:	4313      	orrs	r3, r2
 8001e36:	6063      	str	r3, [r4, #4]
 8001e38:	e73a      	b.n	8001cb0 <HAL_RCC_OscConfig+0x30>
 8001e3a:	f7ff faf1 	bl	8001420 <HAL_GetTick>
 8001e3e:	1bc0      	subs	r0, r0, r7
 8001e40:	2802      	cmp	r0, #2
 8001e42:	d9ee      	bls.n	8001e22 <HAL_RCC_OscConfig+0x1a2>
 8001e44:	e78f      	b.n	8001d66 <HAL_RCC_OscConfig+0xe6>
 8001e46:	2201      	movs	r2, #1
 8001e48:	4393      	bics	r3, r2
 8001e4a:	6023      	str	r3, [r4, #0]
 8001e4c:	f7ff fae8 	bl	8001420 <HAL_GetTick>
 8001e50:	0007      	movs	r7, r0
 8001e52:	2204      	movs	r2, #4
 8001e54:	6823      	ldr	r3, [r4, #0]
 8001e56:	4213      	tst	r3, r2
 8001e58:	d100      	bne.n	8001e5c <HAL_RCC_OscConfig+0x1dc>
 8001e5a:	e729      	b.n	8001cb0 <HAL_RCC_OscConfig+0x30>
 8001e5c:	f7ff fae0 	bl	8001420 <HAL_GetTick>
 8001e60:	1bc0      	subs	r0, r0, r7
 8001e62:	2802      	cmp	r0, #2
 8001e64:	d9f5      	bls.n	8001e52 <HAL_RCC_OscConfig+0x1d2>
 8001e66:	e77e      	b.n	8001d66 <HAL_RCC_OscConfig+0xe6>
 8001e68:	69ab      	ldr	r3, [r5, #24]
 8001e6a:	2b00      	cmp	r3, #0
 8001e6c:	d020      	beq.n	8001eb0 <HAL_RCC_OscConfig+0x230>
 8001e6e:	2380      	movs	r3, #128	; 0x80
 8001e70:	6822      	ldr	r2, [r4, #0]
 8001e72:	005b      	lsls	r3, r3, #1
 8001e74:	4313      	orrs	r3, r2
 8001e76:	6023      	str	r3, [r4, #0]
 8001e78:	f7ff fad2 	bl	8001420 <HAL_GetTick>
 8001e7c:	0007      	movs	r7, r0
 8001e7e:	2280      	movs	r2, #128	; 0x80
 8001e80:	6823      	ldr	r3, [r4, #0]
 8001e82:	0092      	lsls	r2, r2, #2
 8001e84:	4213      	tst	r3, r2
 8001e86:	d00d      	beq.n	8001ea4 <HAL_RCC_OscConfig+0x224>
 8001e88:	6863      	ldr	r3, [r4, #4]
 8001e8a:	4a3f      	ldr	r2, [pc, #252]	; (8001f88 <HAL_RCC_OscConfig+0x308>)
 8001e8c:	4013      	ands	r3, r2
 8001e8e:	6a2a      	ldr	r2, [r5, #32]
 8001e90:	4313      	orrs	r3, r2
 8001e92:	6063      	str	r3, [r4, #4]
 8001e94:	6862      	ldr	r2, [r4, #4]
 8001e96:	69eb      	ldr	r3, [r5, #28]
 8001e98:	0212      	lsls	r2, r2, #8
 8001e9a:	061b      	lsls	r3, r3, #24
 8001e9c:	0a12      	lsrs	r2, r2, #8
 8001e9e:	4313      	orrs	r3, r2
 8001ea0:	6063      	str	r3, [r4, #4]
 8001ea2:	e731      	b.n	8001d08 <HAL_RCC_OscConfig+0x88>
 8001ea4:	f7ff fabc 	bl	8001420 <HAL_GetTick>
 8001ea8:	1bc0      	subs	r0, r0, r7
 8001eaa:	2802      	cmp	r0, #2
 8001eac:	d9e7      	bls.n	8001e7e <HAL_RCC_OscConfig+0x1fe>
 8001eae:	e75a      	b.n	8001d66 <HAL_RCC_OscConfig+0xe6>
 8001eb0:	6823      	ldr	r3, [r4, #0]
 8001eb2:	4a3b      	ldr	r2, [pc, #236]	; (8001fa0 <HAL_RCC_OscConfig+0x320>)
 8001eb4:	4013      	ands	r3, r2
 8001eb6:	6023      	str	r3, [r4, #0]
 8001eb8:	f7ff fab2 	bl	8001420 <HAL_GetTick>
 8001ebc:	0007      	movs	r7, r0
 8001ebe:	2280      	movs	r2, #128	; 0x80
 8001ec0:	6823      	ldr	r3, [r4, #0]
 8001ec2:	0092      	lsls	r2, r2, #2
 8001ec4:	4213      	tst	r3, r2
 8001ec6:	d100      	bne.n	8001eca <HAL_RCC_OscConfig+0x24a>
 8001ec8:	e71e      	b.n	8001d08 <HAL_RCC_OscConfig+0x88>
 8001eca:	f7ff faa9 	bl	8001420 <HAL_GetTick>
 8001ece:	1bc0      	subs	r0, r0, r7
 8001ed0:	2802      	cmp	r0, #2
 8001ed2:	d9f4      	bls.n	8001ebe <HAL_RCC_OscConfig+0x23e>
 8001ed4:	e747      	b.n	8001d66 <HAL_RCC_OscConfig+0xe6>
 8001ed6:	696a      	ldr	r2, [r5, #20]
 8001ed8:	2301      	movs	r3, #1
 8001eda:	2a00      	cmp	r2, #0
 8001edc:	d010      	beq.n	8001f00 <HAL_RCC_OscConfig+0x280>
 8001ede:	6d22      	ldr	r2, [r4, #80]	; 0x50
 8001ee0:	4313      	orrs	r3, r2
 8001ee2:	6523      	str	r3, [r4, #80]	; 0x50
 8001ee4:	f7ff fa9c 	bl	8001420 <HAL_GetTick>
 8001ee8:	0007      	movs	r7, r0
 8001eea:	2202      	movs	r2, #2
 8001eec:	6d23      	ldr	r3, [r4, #80]	; 0x50
 8001eee:	4213      	tst	r3, r2
 8001ef0:	d000      	beq.n	8001ef4 <HAL_RCC_OscConfig+0x274>
 8001ef2:	e70d      	b.n	8001d10 <HAL_RCC_OscConfig+0x90>
 8001ef4:	f7ff fa94 	bl	8001420 <HAL_GetTick>
 8001ef8:	1bc0      	subs	r0, r0, r7
 8001efa:	2802      	cmp	r0, #2
 8001efc:	d9f5      	bls.n	8001eea <HAL_RCC_OscConfig+0x26a>
 8001efe:	e732      	b.n	8001d66 <HAL_RCC_OscConfig+0xe6>
 8001f00:	6d22      	ldr	r2, [r4, #80]	; 0x50
 8001f02:	439a      	bics	r2, r3
 8001f04:	6522      	str	r2, [r4, #80]	; 0x50
 8001f06:	f7ff fa8b 	bl	8001420 <HAL_GetTick>
 8001f0a:	0007      	movs	r7, r0
 8001f0c:	2202      	movs	r2, #2
 8001f0e:	6d23      	ldr	r3, [r4, #80]	; 0x50
 8001f10:	4213      	tst	r3, r2
 8001f12:	d100      	bne.n	8001f16 <HAL_RCC_OscConfig+0x296>
 8001f14:	e6fc      	b.n	8001d10 <HAL_RCC_OscConfig+0x90>
 8001f16:	f7ff fa83 	bl	8001420 <HAL_GetTick>
 8001f1a:	1bc0      	subs	r0, r0, r7
 8001f1c:	2802      	cmp	r0, #2
 8001f1e:	d9f5      	bls.n	8001f0c <HAL_RCC_OscConfig+0x28c>
 8001f20:	e721      	b.n	8001d66 <HAL_RCC_OscConfig+0xe6>
 8001f22:	2380      	movs	r3, #128	; 0x80
 8001f24:	2100      	movs	r1, #0
 8001f26:	6ba2      	ldr	r2, [r4, #56]	; 0x38
 8001f28:	055b      	lsls	r3, r3, #21
 8001f2a:	9101      	str	r1, [sp, #4]
 8001f2c:	421a      	tst	r2, r3
 8001f2e:	d104      	bne.n	8001f3a <HAL_RCC_OscConfig+0x2ba>
 8001f30:	6ba2      	ldr	r2, [r4, #56]	; 0x38
 8001f32:	4313      	orrs	r3, r2
 8001f34:	63a3      	str	r3, [r4, #56]	; 0x38
 8001f36:	2301      	movs	r3, #1
 8001f38:	9301      	str	r3, [sp, #4]
 8001f3a:	2280      	movs	r2, #128	; 0x80
 8001f3c:	4f19      	ldr	r7, [pc, #100]	; (8001fa4 <HAL_RCC_OscConfig+0x324>)
 8001f3e:	0052      	lsls	r2, r2, #1
 8001f40:	683b      	ldr	r3, [r7, #0]
 8001f42:	4213      	tst	r3, r2
 8001f44:	d008      	beq.n	8001f58 <HAL_RCC_OscConfig+0x2d8>
 8001f46:	2280      	movs	r2, #128	; 0x80
 8001f48:	68ab      	ldr	r3, [r5, #8]
 8001f4a:	0052      	lsls	r2, r2, #1
 8001f4c:	4293      	cmp	r3, r2
 8001f4e:	d12b      	bne.n	8001fa8 <HAL_RCC_OscConfig+0x328>
 8001f50:	6d22      	ldr	r2, [r4, #80]	; 0x50
 8001f52:	4313      	orrs	r3, r2
 8001f54:	6523      	str	r3, [r4, #80]	; 0x50
 8001f56:	e04c      	b.n	8001ff2 <HAL_RCC_OscConfig+0x372>
 8001f58:	2280      	movs	r2, #128	; 0x80
 8001f5a:	683b      	ldr	r3, [r7, #0]
 8001f5c:	0052      	lsls	r2, r2, #1
 8001f5e:	4313      	orrs	r3, r2
 8001f60:	603b      	str	r3, [r7, #0]
 8001f62:	f7ff fa5d 	bl	8001420 <HAL_GetTick>
 8001f66:	2380      	movs	r3, #128	; 0x80
 8001f68:	005b      	lsls	r3, r3, #1
 8001f6a:	9002      	str	r0, [sp, #8]
 8001f6c:	9303      	str	r3, [sp, #12]
 8001f6e:	683b      	ldr	r3, [r7, #0]
 8001f70:	9a03      	ldr	r2, [sp, #12]
 8001f72:	4213      	tst	r3, r2
 8001f74:	d1e7      	bne.n	8001f46 <HAL_RCC_OscConfig+0x2c6>
 8001f76:	f7ff fa53 	bl	8001420 <HAL_GetTick>
 8001f7a:	9b02      	ldr	r3, [sp, #8]
 8001f7c:	1ac0      	subs	r0, r0, r3
 8001f7e:	2864      	cmp	r0, #100	; 0x64
 8001f80:	d9f5      	bls.n	8001f6e <HAL_RCC_OscConfig+0x2ee>
 8001f82:	e6f0      	b.n	8001d66 <HAL_RCC_OscConfig+0xe6>
 8001f84:	40021000 	.word	0x40021000
 8001f88:	ffff1fff 	.word	0xffff1fff
 8001f8c:	08003720 	.word	0x08003720
 8001f90:	20000000 	.word	0x20000000
 8001f94:	fffeffff 	.word	0xfffeffff
 8001f98:	fffbffff 	.word	0xfffbffff
 8001f9c:	ffffe0ff 	.word	0xffffe0ff
 8001fa0:	fffffeff 	.word	0xfffffeff
 8001fa4:	40007000 	.word	0x40007000
 8001fa8:	2b00      	cmp	r3, #0
 8001faa:	d116      	bne.n	8001fda <HAL_RCC_OscConfig+0x35a>
 8001fac:	6d23      	ldr	r3, [r4, #80]	; 0x50
 8001fae:	4a53      	ldr	r2, [pc, #332]	; (80020fc <HAL_RCC_OscConfig+0x47c>)
 8001fb0:	4013      	ands	r3, r2
 8001fb2:	6523      	str	r3, [r4, #80]	; 0x50
 8001fb4:	6d23      	ldr	r3, [r4, #80]	; 0x50
 8001fb6:	4a52      	ldr	r2, [pc, #328]	; (8002100 <HAL_RCC_OscConfig+0x480>)
 8001fb8:	4013      	ands	r3, r2
 8001fba:	6523      	str	r3, [r4, #80]	; 0x50
 8001fbc:	f7ff fa30 	bl	8001420 <HAL_GetTick>
 8001fc0:	0007      	movs	r7, r0
 8001fc2:	2280      	movs	r2, #128	; 0x80
 8001fc4:	6d23      	ldr	r3, [r4, #80]	; 0x50
 8001fc6:	0092      	lsls	r2, r2, #2
 8001fc8:	4213      	tst	r3, r2
 8001fca:	d02a      	beq.n	8002022 <HAL_RCC_OscConfig+0x3a2>
 8001fcc:	f7ff fa28 	bl	8001420 <HAL_GetTick>
 8001fd0:	4b4c      	ldr	r3, [pc, #304]	; (8002104 <HAL_RCC_OscConfig+0x484>)
 8001fd2:	1bc0      	subs	r0, r0, r7
 8001fd4:	4298      	cmp	r0, r3
 8001fd6:	d9f4      	bls.n	8001fc2 <HAL_RCC_OscConfig+0x342>
 8001fd8:	e6c5      	b.n	8001d66 <HAL_RCC_OscConfig+0xe6>
 8001fda:	21a0      	movs	r1, #160	; 0xa0
 8001fdc:	00c9      	lsls	r1, r1, #3
 8001fde:	428b      	cmp	r3, r1
 8001fe0:	d10b      	bne.n	8001ffa <HAL_RCC_OscConfig+0x37a>
 8001fe2:	2380      	movs	r3, #128	; 0x80
 8001fe4:	6d21      	ldr	r1, [r4, #80]	; 0x50
 8001fe6:	00db      	lsls	r3, r3, #3
 8001fe8:	430b      	orrs	r3, r1
 8001fea:	6523      	str	r3, [r4, #80]	; 0x50
 8001fec:	6d23      	ldr	r3, [r4, #80]	; 0x50
 8001fee:	431a      	orrs	r2, r3
 8001ff0:	6522      	str	r2, [r4, #80]	; 0x50
 8001ff2:	f7ff fa15 	bl	8001420 <HAL_GetTick>
 8001ff6:	0007      	movs	r7, r0
 8001ff8:	e00e      	b.n	8002018 <HAL_RCC_OscConfig+0x398>
 8001ffa:	6d23      	ldr	r3, [r4, #80]	; 0x50
 8001ffc:	4a3f      	ldr	r2, [pc, #252]	; (80020fc <HAL_RCC_OscConfig+0x47c>)
 8001ffe:	4013      	ands	r3, r2
 8002000:	6523      	str	r3, [r4, #80]	; 0x50
 8002002:	6d23      	ldr	r3, [r4, #80]	; 0x50
 8002004:	4a3e      	ldr	r2, [pc, #248]	; (8002100 <HAL_RCC_OscConfig+0x480>)
 8002006:	4013      	ands	r3, r2
 8002008:	e7a4      	b.n	8001f54 <HAL_RCC_OscConfig+0x2d4>
 800200a:	f7ff fa09 	bl	8001420 <HAL_GetTick>
 800200e:	4b3d      	ldr	r3, [pc, #244]	; (8002104 <HAL_RCC_OscConfig+0x484>)
 8002010:	1bc0      	subs	r0, r0, r7
 8002012:	4298      	cmp	r0, r3
 8002014:	d900      	bls.n	8002018 <HAL_RCC_OscConfig+0x398>
 8002016:	e6a6      	b.n	8001d66 <HAL_RCC_OscConfig+0xe6>
 8002018:	2280      	movs	r2, #128	; 0x80
 800201a:	6d23      	ldr	r3, [r4, #80]	; 0x50
 800201c:	0092      	lsls	r2, r2, #2
 800201e:	4213      	tst	r3, r2
 8002020:	d0f3      	beq.n	800200a <HAL_RCC_OscConfig+0x38a>
 8002022:	9b01      	ldr	r3, [sp, #4]
 8002024:	2b01      	cmp	r3, #1
 8002026:	d000      	beq.n	800202a <HAL_RCC_OscConfig+0x3aa>
 8002028:	e676      	b.n	8001d18 <HAL_RCC_OscConfig+0x98>
 800202a:	6ba3      	ldr	r3, [r4, #56]	; 0x38
 800202c:	4a36      	ldr	r2, [pc, #216]	; (8002108 <HAL_RCC_OscConfig+0x488>)
 800202e:	4013      	ands	r3, r2
 8002030:	63a3      	str	r3, [r4, #56]	; 0x38
 8002032:	e671      	b.n	8001d18 <HAL_RCC_OscConfig+0x98>
 8002034:	2e0c      	cmp	r6, #12
 8002036:	d043      	beq.n	80020c0 <HAL_RCC_OscConfig+0x440>
 8002038:	4a34      	ldr	r2, [pc, #208]	; (800210c <HAL_RCC_OscConfig+0x48c>)
 800203a:	2b02      	cmp	r3, #2
 800203c:	d12e      	bne.n	800209c <HAL_RCC_OscConfig+0x41c>
 800203e:	6823      	ldr	r3, [r4, #0]
 8002040:	2680      	movs	r6, #128	; 0x80
 8002042:	4013      	ands	r3, r2
 8002044:	6023      	str	r3, [r4, #0]
 8002046:	f7ff f9eb 	bl	8001420 <HAL_GetTick>
 800204a:	0007      	movs	r7, r0
 800204c:	04b6      	lsls	r6, r6, #18
 800204e:	6823      	ldr	r3, [r4, #0]
 8002050:	4233      	tst	r3, r6
 8002052:	d11d      	bne.n	8002090 <HAL_RCC_OscConfig+0x410>
 8002054:	6ae9      	ldr	r1, [r5, #44]	; 0x2c
 8002056:	6aab      	ldr	r3, [r5, #40]	; 0x28
 8002058:	68e2      	ldr	r2, [r4, #12]
 800205a:	430b      	orrs	r3, r1
 800205c:	492c      	ldr	r1, [pc, #176]	; (8002110 <HAL_RCC_OscConfig+0x490>)
 800205e:	400a      	ands	r2, r1
 8002060:	4313      	orrs	r3, r2
 8002062:	6b2a      	ldr	r2, [r5, #48]	; 0x30
 8002064:	2580      	movs	r5, #128	; 0x80
 8002066:	4313      	orrs	r3, r2
 8002068:	60e3      	str	r3, [r4, #12]
 800206a:	2380      	movs	r3, #128	; 0x80
 800206c:	6822      	ldr	r2, [r4, #0]
 800206e:	045b      	lsls	r3, r3, #17
 8002070:	4313      	orrs	r3, r2
 8002072:	6023      	str	r3, [r4, #0]
 8002074:	f7ff f9d4 	bl	8001420 <HAL_GetTick>
 8002078:	0006      	movs	r6, r0
 800207a:	04ad      	lsls	r5, r5, #18
 800207c:	6823      	ldr	r3, [r4, #0]
 800207e:	422b      	tst	r3, r5
 8002080:	d000      	beq.n	8002084 <HAL_RCC_OscConfig+0x404>
 8002082:	e64d      	b.n	8001d20 <HAL_RCC_OscConfig+0xa0>
 8002084:	f7ff f9cc 	bl	8001420 <HAL_GetTick>
 8002088:	1b80      	subs	r0, r0, r6
 800208a:	2802      	cmp	r0, #2
 800208c:	d9f6      	bls.n	800207c <HAL_RCC_OscConfig+0x3fc>
 800208e:	e66a      	b.n	8001d66 <HAL_RCC_OscConfig+0xe6>
 8002090:	f7ff f9c6 	bl	8001420 <HAL_GetTick>
 8002094:	1bc0      	subs	r0, r0, r7
 8002096:	2802      	cmp	r0, #2
 8002098:	d9d9      	bls.n	800204e <HAL_RCC_OscConfig+0x3ce>
 800209a:	e664      	b.n	8001d66 <HAL_RCC_OscConfig+0xe6>
 800209c:	6823      	ldr	r3, [r4, #0]
 800209e:	2580      	movs	r5, #128	; 0x80
 80020a0:	4013      	ands	r3, r2
 80020a2:	6023      	str	r3, [r4, #0]
 80020a4:	f7ff f9bc 	bl	8001420 <HAL_GetTick>
 80020a8:	0006      	movs	r6, r0
 80020aa:	04ad      	lsls	r5, r5, #18
 80020ac:	6823      	ldr	r3, [r4, #0]
 80020ae:	422b      	tst	r3, r5
 80020b0:	d100      	bne.n	80020b4 <HAL_RCC_OscConfig+0x434>
 80020b2:	e635      	b.n	8001d20 <HAL_RCC_OscConfig+0xa0>
 80020b4:	f7ff f9b4 	bl	8001420 <HAL_GetTick>
 80020b8:	1b80      	subs	r0, r0, r6
 80020ba:	2802      	cmp	r0, #2
 80020bc:	d9f6      	bls.n	80020ac <HAL_RCC_OscConfig+0x42c>
 80020be:	e652      	b.n	8001d66 <HAL_RCC_OscConfig+0xe6>
 80020c0:	0018      	movs	r0, r3
 80020c2:	2b01      	cmp	r3, #1
 80020c4:	d100      	bne.n	80020c8 <HAL_RCC_OscConfig+0x448>
 80020c6:	e5e1      	b.n	8001c8c <HAL_RCC_OscConfig+0xc>
 80020c8:	2280      	movs	r2, #128	; 0x80
 80020ca:	68e3      	ldr	r3, [r4, #12]
 80020cc:	6aa9      	ldr	r1, [r5, #40]	; 0x28
 80020ce:	0252      	lsls	r2, r2, #9
 80020d0:	401a      	ands	r2, r3
 80020d2:	2001      	movs	r0, #1
 80020d4:	428a      	cmp	r2, r1
 80020d6:	d000      	beq.n	80020da <HAL_RCC_OscConfig+0x45a>
 80020d8:	e5d8      	b.n	8001c8c <HAL_RCC_OscConfig+0xc>
 80020da:	22f0      	movs	r2, #240	; 0xf0
 80020dc:	6ae9      	ldr	r1, [r5, #44]	; 0x2c
 80020de:	0392      	lsls	r2, r2, #14
 80020e0:	401a      	ands	r2, r3
 80020e2:	428a      	cmp	r2, r1
 80020e4:	d000      	beq.n	80020e8 <HAL_RCC_OscConfig+0x468>
 80020e6:	e5d1      	b.n	8001c8c <HAL_RCC_OscConfig+0xc>
 80020e8:	20c0      	movs	r0, #192	; 0xc0
 80020ea:	0400      	lsls	r0, r0, #16
 80020ec:	4003      	ands	r3, r0
 80020ee:	6b28      	ldr	r0, [r5, #48]	; 0x30
 80020f0:	1a18      	subs	r0, r3, r0
 80020f2:	1e43      	subs	r3, r0, #1
 80020f4:	4198      	sbcs	r0, r3
 80020f6:	b2c0      	uxtb	r0, r0
 80020f8:	e5c8      	b.n	8001c8c <HAL_RCC_OscConfig+0xc>
 80020fa:	46c0      	nop			; (mov r8, r8)
 80020fc:	fffffeff 	.word	0xfffffeff
 8002100:	fffffbff 	.word	0xfffffbff
 8002104:	00001388 	.word	0x00001388
 8002108:	efffffff 	.word	0xefffffff
 800210c:	feffffff 	.word	0xfeffffff
 8002110:	ff02ffff 	.word	0xff02ffff

08002114 <HAL_RCC_ClockConfig>:
 8002114:	b5f7      	push	{r0, r1, r2, r4, r5, r6, r7, lr}
 8002116:	1e06      	subs	r6, r0, #0
 8002118:	9101      	str	r1, [sp, #4]
 800211a:	d101      	bne.n	8002120 <HAL_RCC_ClockConfig+0xc>
 800211c:	2001      	movs	r0, #1
 800211e:	bdfe      	pop	{r1, r2, r3, r4, r5, r6, r7, pc}
 8002120:	2201      	movs	r2, #1
 8002122:	4c51      	ldr	r4, [pc, #324]	; (8002268 <HAL_RCC_ClockConfig+0x154>)
 8002124:	9901      	ldr	r1, [sp, #4]
 8002126:	6823      	ldr	r3, [r4, #0]
 8002128:	4013      	ands	r3, r2
 800212a:	428b      	cmp	r3, r1
 800212c:	d327      	bcc.n	800217e <HAL_RCC_ClockConfig+0x6a>
 800212e:	6832      	ldr	r2, [r6, #0]
 8002130:	0793      	lsls	r3, r2, #30
 8002132:	d42f      	bmi.n	8002194 <HAL_RCC_ClockConfig+0x80>
 8002134:	07d3      	lsls	r3, r2, #31
 8002136:	d435      	bmi.n	80021a4 <HAL_RCC_ClockConfig+0x90>
 8002138:	2301      	movs	r3, #1
 800213a:	6822      	ldr	r2, [r4, #0]
 800213c:	9901      	ldr	r1, [sp, #4]
 800213e:	401a      	ands	r2, r3
 8002140:	428a      	cmp	r2, r1
 8002142:	d900      	bls.n	8002146 <HAL_RCC_ClockConfig+0x32>
 8002144:	e081      	b.n	800224a <HAL_RCC_ClockConfig+0x136>
 8002146:	6832      	ldr	r2, [r6, #0]
 8002148:	4c48      	ldr	r4, [pc, #288]	; (800226c <HAL_RCC_ClockConfig+0x158>)
 800214a:	0753      	lsls	r3, r2, #29
 800214c:	d500      	bpl.n	8002150 <HAL_RCC_ClockConfig+0x3c>
 800214e:	e084      	b.n	800225a <HAL_RCC_ClockConfig+0x146>
 8002150:	0713      	lsls	r3, r2, #28
 8002152:	d506      	bpl.n	8002162 <HAL_RCC_ClockConfig+0x4e>
 8002154:	68e2      	ldr	r2, [r4, #12]
 8002156:	6933      	ldr	r3, [r6, #16]
 8002158:	4945      	ldr	r1, [pc, #276]	; (8002270 <HAL_RCC_ClockConfig+0x15c>)
 800215a:	00db      	lsls	r3, r3, #3
 800215c:	400a      	ands	r2, r1
 800215e:	4313      	orrs	r3, r2
 8002160:	60e3      	str	r3, [r4, #12]
 8002162:	f7ff fd4d 	bl	8001c00 <HAL_RCC_GetSysClockFreq>
 8002166:	68e3      	ldr	r3, [r4, #12]
 8002168:	4a42      	ldr	r2, [pc, #264]	; (8002274 <HAL_RCC_ClockConfig+0x160>)
 800216a:	061b      	lsls	r3, r3, #24
 800216c:	0f1b      	lsrs	r3, r3, #28
 800216e:	5cd3      	ldrb	r3, [r2, r3]
 8002170:	40d8      	lsrs	r0, r3
 8002172:	4b41      	ldr	r3, [pc, #260]	; (8002278 <HAL_RCC_ClockConfig+0x164>)
 8002174:	6018      	str	r0, [r3, #0]
 8002176:	2000      	movs	r0, #0
 8002178:	f7ff f836 	bl	80011e8 <HAL_InitTick>
 800217c:	e7cf      	b.n	800211e <HAL_RCC_ClockConfig+0xa>
 800217e:	6823      	ldr	r3, [r4, #0]
 8002180:	9901      	ldr	r1, [sp, #4]
 8002182:	4393      	bics	r3, r2
 8002184:	430b      	orrs	r3, r1
 8002186:	6023      	str	r3, [r4, #0]
 8002188:	6823      	ldr	r3, [r4, #0]
 800218a:	4013      	ands	r3, r2
 800218c:	9a01      	ldr	r2, [sp, #4]
 800218e:	4293      	cmp	r3, r2
 8002190:	d1c4      	bne.n	800211c <HAL_RCC_ClockConfig+0x8>
 8002192:	e7cc      	b.n	800212e <HAL_RCC_ClockConfig+0x1a>
 8002194:	20f0      	movs	r0, #240	; 0xf0
 8002196:	4935      	ldr	r1, [pc, #212]	; (800226c <HAL_RCC_ClockConfig+0x158>)
 8002198:	68cb      	ldr	r3, [r1, #12]
 800219a:	4383      	bics	r3, r0
 800219c:	68b0      	ldr	r0, [r6, #8]
 800219e:	4303      	orrs	r3, r0
 80021a0:	60cb      	str	r3, [r1, #12]
 80021a2:	e7c7      	b.n	8002134 <HAL_RCC_ClockConfig+0x20>
 80021a4:	4d31      	ldr	r5, [pc, #196]	; (800226c <HAL_RCC_ClockConfig+0x158>)
 80021a6:	6872      	ldr	r2, [r6, #4]
 80021a8:	682b      	ldr	r3, [r5, #0]
 80021aa:	2a02      	cmp	r2, #2
 80021ac:	d119      	bne.n	80021e2 <HAL_RCC_ClockConfig+0xce>
 80021ae:	039b      	lsls	r3, r3, #14
 80021b0:	d5b4      	bpl.n	800211c <HAL_RCC_ClockConfig+0x8>
 80021b2:	2103      	movs	r1, #3
 80021b4:	68eb      	ldr	r3, [r5, #12]
 80021b6:	438b      	bics	r3, r1
 80021b8:	4313      	orrs	r3, r2
 80021ba:	60eb      	str	r3, [r5, #12]
 80021bc:	f7ff f930 	bl	8001420 <HAL_GetTick>
 80021c0:	6873      	ldr	r3, [r6, #4]
 80021c2:	0007      	movs	r7, r0
 80021c4:	2b02      	cmp	r3, #2
 80021c6:	d119      	bne.n	80021fc <HAL_RCC_ClockConfig+0xe8>
 80021c8:	220c      	movs	r2, #12
 80021ca:	68eb      	ldr	r3, [r5, #12]
 80021cc:	4013      	ands	r3, r2
 80021ce:	2b08      	cmp	r3, #8
 80021d0:	d0b2      	beq.n	8002138 <HAL_RCC_ClockConfig+0x24>
 80021d2:	f7ff f925 	bl	8001420 <HAL_GetTick>
 80021d6:	4b29      	ldr	r3, [pc, #164]	; (800227c <HAL_RCC_ClockConfig+0x168>)
 80021d8:	1bc0      	subs	r0, r0, r7
 80021da:	4298      	cmp	r0, r3
 80021dc:	d9f4      	bls.n	80021c8 <HAL_RCC_ClockConfig+0xb4>
 80021de:	2003      	movs	r0, #3
 80021e0:	e79d      	b.n	800211e <HAL_RCC_ClockConfig+0xa>
 80021e2:	2a03      	cmp	r2, #3
 80021e4:	d102      	bne.n	80021ec <HAL_RCC_ClockConfig+0xd8>
 80021e6:	019b      	lsls	r3, r3, #6
 80021e8:	d4e3      	bmi.n	80021b2 <HAL_RCC_ClockConfig+0x9e>
 80021ea:	e797      	b.n	800211c <HAL_RCC_ClockConfig+0x8>
 80021ec:	2a01      	cmp	r2, #1
 80021ee:	d102      	bne.n	80021f6 <HAL_RCC_ClockConfig+0xe2>
 80021f0:	075b      	lsls	r3, r3, #29
 80021f2:	d4de      	bmi.n	80021b2 <HAL_RCC_ClockConfig+0x9e>
 80021f4:	e792      	b.n	800211c <HAL_RCC_ClockConfig+0x8>
 80021f6:	059b      	lsls	r3, r3, #22
 80021f8:	d4db      	bmi.n	80021b2 <HAL_RCC_ClockConfig+0x9e>
 80021fa:	e78f      	b.n	800211c <HAL_RCC_ClockConfig+0x8>
 80021fc:	2b03      	cmp	r3, #3
 80021fe:	d10b      	bne.n	8002218 <HAL_RCC_ClockConfig+0x104>
 8002200:	220c      	movs	r2, #12
 8002202:	68eb      	ldr	r3, [r5, #12]
 8002204:	4013      	ands	r3, r2
 8002206:	4293      	cmp	r3, r2
 8002208:	d096      	beq.n	8002138 <HAL_RCC_ClockConfig+0x24>
 800220a:	f7ff f909 	bl	8001420 <HAL_GetTick>
 800220e:	4b1b      	ldr	r3, [pc, #108]	; (800227c <HAL_RCC_ClockConfig+0x168>)
 8002210:	1bc0      	subs	r0, r0, r7
 8002212:	4298      	cmp	r0, r3
 8002214:	d9f4      	bls.n	8002200 <HAL_RCC_ClockConfig+0xec>
 8002216:	e7e2      	b.n	80021de <HAL_RCC_ClockConfig+0xca>
 8002218:	2b01      	cmp	r3, #1
 800221a:	d010      	beq.n	800223e <HAL_RCC_ClockConfig+0x12a>
 800221c:	220c      	movs	r2, #12
 800221e:	68eb      	ldr	r3, [r5, #12]
 8002220:	4213      	tst	r3, r2
 8002222:	d089      	beq.n	8002138 <HAL_RCC_ClockConfig+0x24>
 8002224:	f7ff f8fc 	bl	8001420 <HAL_GetTick>
 8002228:	4b14      	ldr	r3, [pc, #80]	; (800227c <HAL_RCC_ClockConfig+0x168>)
 800222a:	1bc0      	subs	r0, r0, r7
 800222c:	4298      	cmp	r0, r3
 800222e:	d9f5      	bls.n	800221c <HAL_RCC_ClockConfig+0x108>
 8002230:	e7d5      	b.n	80021de <HAL_RCC_ClockConfig+0xca>
 8002232:	f7ff f8f5 	bl	8001420 <HAL_GetTick>
 8002236:	4b11      	ldr	r3, [pc, #68]	; (800227c <HAL_RCC_ClockConfig+0x168>)
 8002238:	1bc0      	subs	r0, r0, r7
 800223a:	4298      	cmp	r0, r3
 800223c:	d8cf      	bhi.n	80021de <HAL_RCC_ClockConfig+0xca>
 800223e:	220c      	movs	r2, #12
 8002240:	68eb      	ldr	r3, [r5, #12]
 8002242:	4013      	ands	r3, r2
 8002244:	2b04      	cmp	r3, #4
 8002246:	d1f4      	bne.n	8002232 <HAL_RCC_ClockConfig+0x11e>
 8002248:	e776      	b.n	8002138 <HAL_RCC_ClockConfig+0x24>
 800224a:	6822      	ldr	r2, [r4, #0]
 800224c:	439a      	bics	r2, r3
 800224e:	6022      	str	r2, [r4, #0]
 8002250:	6822      	ldr	r2, [r4, #0]
 8002252:	421a      	tst	r2, r3
 8002254:	d100      	bne.n	8002258 <HAL_RCC_ClockConfig+0x144>
 8002256:	e776      	b.n	8002146 <HAL_RCC_ClockConfig+0x32>
 8002258:	e760      	b.n	800211c <HAL_RCC_ClockConfig+0x8>
 800225a:	68e3      	ldr	r3, [r4, #12]
 800225c:	4908      	ldr	r1, [pc, #32]	; (8002280 <HAL_RCC_ClockConfig+0x16c>)
 800225e:	400b      	ands	r3, r1
 8002260:	68f1      	ldr	r1, [r6, #12]
 8002262:	430b      	orrs	r3, r1
 8002264:	60e3      	str	r3, [r4, #12]
 8002266:	e773      	b.n	8002150 <HAL_RCC_ClockConfig+0x3c>
 8002268:	40022000 	.word	0x40022000
 800226c:	40021000 	.word	0x40021000
 8002270:	ffffc7ff 	.word	0xffffc7ff
 8002274:	08003720 	.word	0x08003720
 8002278:	20000000 	.word	0x20000000
 800227c:	00001388 	.word	0x00001388
 8002280:	fffff8ff 	.word	0xfffff8ff

08002284 <HAL_RCC_GetPCLK1Freq>:
 8002284:	4b04      	ldr	r3, [pc, #16]	; (8002298 <HAL_RCC_GetPCLK1Freq+0x14>)
 8002286:	4a05      	ldr	r2, [pc, #20]	; (800229c <HAL_RCC_GetPCLK1Freq+0x18>)
 8002288:	68db      	ldr	r3, [r3, #12]
 800228a:	055b      	lsls	r3, r3, #21
 800228c:	0f5b      	lsrs	r3, r3, #29
 800228e:	5cd3      	ldrb	r3, [r2, r3]
 8002290:	4a03      	ldr	r2, [pc, #12]	; (80022a0 <HAL_RCC_GetPCLK1Freq+0x1c>)
 8002292:	6810      	ldr	r0, [r2, #0]
 8002294:	40d8      	lsrs	r0, r3
 8002296:	4770      	bx	lr
 8002298:	40021000 	.word	0x40021000
 800229c:	08003730 	.word	0x08003730
 80022a0:	20000000 	.word	0x20000000

080022a4 <HAL_RCC_GetPCLK2Freq>:
 80022a4:	4b04      	ldr	r3, [pc, #16]	; (80022b8 <HAL_RCC_GetPCLK2Freq+0x14>)
 80022a6:	4a05      	ldr	r2, [pc, #20]	; (80022bc <HAL_RCC_GetPCLK2Freq+0x18>)
 80022a8:	68db      	ldr	r3, [r3, #12]
 80022aa:	049b      	lsls	r3, r3, #18
 80022ac:	0f5b      	lsrs	r3, r3, #29
 80022ae:	5cd3      	ldrb	r3, [r2, r3]
 80022b0:	4a03      	ldr	r2, [pc, #12]	; (80022c0 <HAL_RCC_GetPCLK2Freq+0x1c>)
 80022b2:	6810      	ldr	r0, [r2, #0]
 80022b4:	40d8      	lsrs	r0, r3
 80022b6:	4770      	bx	lr
 80022b8:	40021000 	.word	0x40021000
 80022bc:	08003730 	.word	0x08003730
 80022c0:	20000000 	.word	0x20000000

080022c4 <HAL_RCC_GetClockConfig>:
 80022c4:	230f      	movs	r3, #15
 80022c6:	b530      	push	{r4, r5, lr}
 80022c8:	2403      	movs	r4, #3
 80022ca:	25e0      	movs	r5, #224	; 0xe0
 80022cc:	4a0b      	ldr	r2, [pc, #44]	; (80022fc <HAL_RCC_GetClockConfig+0x38>)
 80022ce:	6003      	str	r3, [r0, #0]
 80022d0:	68d3      	ldr	r3, [r2, #12]
 80022d2:	00ed      	lsls	r5, r5, #3
 80022d4:	4023      	ands	r3, r4
 80022d6:	6043      	str	r3, [r0, #4]
 80022d8:	68d3      	ldr	r3, [r2, #12]
 80022da:	34ed      	adds	r4, #237	; 0xed
 80022dc:	4023      	ands	r3, r4
 80022de:	6083      	str	r3, [r0, #8]
 80022e0:	68d4      	ldr	r4, [r2, #12]
 80022e2:	402c      	ands	r4, r5
 80022e4:	60c4      	str	r4, [r0, #12]
 80022e6:	68d3      	ldr	r3, [r2, #12]
 80022e8:	2201      	movs	r2, #1
 80022ea:	08db      	lsrs	r3, r3, #3
 80022ec:	402b      	ands	r3, r5
 80022ee:	6103      	str	r3, [r0, #16]
 80022f0:	4b03      	ldr	r3, [pc, #12]	; (8002300 <HAL_RCC_GetClockConfig+0x3c>)
 80022f2:	681b      	ldr	r3, [r3, #0]
 80022f4:	4013      	ands	r3, r2
 80022f6:	600b      	str	r3, [r1, #0]
 80022f8:	bd30      	pop	{r4, r5, pc}
 80022fa:	46c0      	nop			; (mov r8, r8)
 80022fc:	40021000 	.word	0x40021000
 8002300:	40022000 	.word	0x40022000

08002304 <HAL_RCCEx_PeriphCLKConfig>:
 8002304:	6803      	ldr	r3, [r0, #0]
 8002306:	b5f7      	push	{r0, r1, r2, r4, r5, r6, r7, lr}
 8002308:	0005      	movs	r5, r0
 800230a:	069b      	lsls	r3, r3, #26
 800230c:	d53b      	bpl.n	8002386 <HAL_RCCEx_PeriphCLKConfig+0x82>
 800230e:	2380      	movs	r3, #128	; 0x80
 8002310:	2100      	movs	r1, #0
 8002312:	4c53      	ldr	r4, [pc, #332]	; (8002460 <HAL_RCCEx_PeriphCLKConfig+0x15c>)
 8002314:	055b      	lsls	r3, r3, #21
 8002316:	6ba2      	ldr	r2, [r4, #56]	; 0x38
 8002318:	9100      	str	r1, [sp, #0]
 800231a:	421a      	tst	r2, r3
 800231c:	d104      	bne.n	8002328 <HAL_RCCEx_PeriphCLKConfig+0x24>
 800231e:	6ba2      	ldr	r2, [r4, #56]	; 0x38
 8002320:	4313      	orrs	r3, r2
 8002322:	63a3      	str	r3, [r4, #56]	; 0x38
 8002324:	2301      	movs	r3, #1
 8002326:	9300      	str	r3, [sp, #0]
 8002328:	2780      	movs	r7, #128	; 0x80
 800232a:	4e4e      	ldr	r6, [pc, #312]	; (8002464 <HAL_RCCEx_PeriphCLKConfig+0x160>)
 800232c:	007f      	lsls	r7, r7, #1
 800232e:	6833      	ldr	r3, [r6, #0]
 8002330:	423b      	tst	r3, r7
 8002332:	d058      	beq.n	80023e6 <HAL_RCCEx_PeriphCLKConfig+0xe2>
 8002334:	6868      	ldr	r0, [r5, #4]
 8002336:	23c0      	movs	r3, #192	; 0xc0
 8002338:	26c0      	movs	r6, #192	; 0xc0
 800233a:	0001      	movs	r1, r0
 800233c:	6822      	ldr	r2, [r4, #0]
 800233e:	03b6      	lsls	r6, r6, #14
 8002340:	029b      	lsls	r3, r3, #10
 8002342:	4030      	ands	r0, r6
 8002344:	4032      	ands	r2, r6
 8002346:	4019      	ands	r1, r3
 8002348:	001e      	movs	r6, r3
 800234a:	4290      	cmp	r0, r2
 800234c:	d15c      	bne.n	8002408 <HAL_RCCEx_PeriphCLKConfig+0x104>
 800234e:	6d23      	ldr	r3, [r4, #80]	; 0x50
 8002350:	4033      	ands	r3, r6
 8002352:	d160      	bne.n	8002416 <HAL_RCCEx_PeriphCLKConfig+0x112>
 8002354:	6869      	ldr	r1, [r5, #4]
 8002356:	23c0      	movs	r3, #192	; 0xc0
 8002358:	000a      	movs	r2, r1
 800235a:	029b      	lsls	r3, r3, #10
 800235c:	401a      	ands	r2, r3
 800235e:	429a      	cmp	r2, r3
 8002360:	d107      	bne.n	8002372 <HAL_RCCEx_PeriphCLKConfig+0x6e>
 8002362:	6823      	ldr	r3, [r4, #0]
 8002364:	4840      	ldr	r0, [pc, #256]	; (8002468 <HAL_RCCEx_PeriphCLKConfig+0x164>)
 8002366:	4003      	ands	r3, r0
 8002368:	20c0      	movs	r0, #192	; 0xc0
 800236a:	0380      	lsls	r0, r0, #14
 800236c:	4001      	ands	r1, r0
 800236e:	430b      	orrs	r3, r1
 8002370:	6023      	str	r3, [r4, #0]
 8002372:	6d23      	ldr	r3, [r4, #80]	; 0x50
 8002374:	431a      	orrs	r2, r3
 8002376:	9b00      	ldr	r3, [sp, #0]
 8002378:	6522      	str	r2, [r4, #80]	; 0x50
 800237a:	2b01      	cmp	r3, #1
 800237c:	d103      	bne.n	8002386 <HAL_RCCEx_PeriphCLKConfig+0x82>
 800237e:	6ba3      	ldr	r3, [r4, #56]	; 0x38
 8002380:	4a3a      	ldr	r2, [pc, #232]	; (800246c <HAL_RCCEx_PeriphCLKConfig+0x168>)
 8002382:	4013      	ands	r3, r2
 8002384:	63a3      	str	r3, [r4, #56]	; 0x38
 8002386:	682b      	ldr	r3, [r5, #0]
 8002388:	07da      	lsls	r2, r3, #31
 800238a:	d506      	bpl.n	800239a <HAL_RCCEx_PeriphCLKConfig+0x96>
 800238c:	2003      	movs	r0, #3
 800238e:	4934      	ldr	r1, [pc, #208]	; (8002460 <HAL_RCCEx_PeriphCLKConfig+0x15c>)
 8002390:	6cca      	ldr	r2, [r1, #76]	; 0x4c
 8002392:	4382      	bics	r2, r0
 8002394:	68a8      	ldr	r0, [r5, #8]
 8002396:	4302      	orrs	r2, r0
 8002398:	64ca      	str	r2, [r1, #76]	; 0x4c
 800239a:	079a      	lsls	r2, r3, #30
 800239c:	d506      	bpl.n	80023ac <HAL_RCCEx_PeriphCLKConfig+0xa8>
 800239e:	200c      	movs	r0, #12
 80023a0:	492f      	ldr	r1, [pc, #188]	; (8002460 <HAL_RCCEx_PeriphCLKConfig+0x15c>)
 80023a2:	6cca      	ldr	r2, [r1, #76]	; 0x4c
 80023a4:	4382      	bics	r2, r0
 80023a6:	68e8      	ldr	r0, [r5, #12]
 80023a8:	4302      	orrs	r2, r0
 80023aa:	64ca      	str	r2, [r1, #76]	; 0x4c
 80023ac:	075a      	lsls	r2, r3, #29
 80023ae:	d506      	bpl.n	80023be <HAL_RCCEx_PeriphCLKConfig+0xba>
 80023b0:	492b      	ldr	r1, [pc, #172]	; (8002460 <HAL_RCCEx_PeriphCLKConfig+0x15c>)
 80023b2:	482f      	ldr	r0, [pc, #188]	; (8002470 <HAL_RCCEx_PeriphCLKConfig+0x16c>)
 80023b4:	6cca      	ldr	r2, [r1, #76]	; 0x4c
 80023b6:	4002      	ands	r2, r0
 80023b8:	6928      	ldr	r0, [r5, #16]
 80023ba:	4302      	orrs	r2, r0
 80023bc:	64ca      	str	r2, [r1, #76]	; 0x4c
 80023be:	071a      	lsls	r2, r3, #28
 80023c0:	d506      	bpl.n	80023d0 <HAL_RCCEx_PeriphCLKConfig+0xcc>
 80023c2:	4927      	ldr	r1, [pc, #156]	; (8002460 <HAL_RCCEx_PeriphCLKConfig+0x15c>)
 80023c4:	482b      	ldr	r0, [pc, #172]	; (8002474 <HAL_RCCEx_PeriphCLKConfig+0x170>)
 80023c6:	6cca      	ldr	r2, [r1, #76]	; 0x4c
 80023c8:	4002      	ands	r2, r0
 80023ca:	6968      	ldr	r0, [r5, #20]
 80023cc:	4302      	orrs	r2, r0
 80023ce:	64ca      	str	r2, [r1, #76]	; 0x4c
 80023d0:	2000      	movs	r0, #0
 80023d2:	061b      	lsls	r3, r3, #24
 80023d4:	d517      	bpl.n	8002406 <HAL_RCCEx_PeriphCLKConfig+0x102>
 80023d6:	4a22      	ldr	r2, [pc, #136]	; (8002460 <HAL_RCCEx_PeriphCLKConfig+0x15c>)
 80023d8:	4927      	ldr	r1, [pc, #156]	; (8002478 <HAL_RCCEx_PeriphCLKConfig+0x174>)
 80023da:	6cd3      	ldr	r3, [r2, #76]	; 0x4c
 80023dc:	400b      	ands	r3, r1
 80023de:	69a9      	ldr	r1, [r5, #24]
 80023e0:	430b      	orrs	r3, r1
 80023e2:	64d3      	str	r3, [r2, #76]	; 0x4c
 80023e4:	e00f      	b.n	8002406 <HAL_RCCEx_PeriphCLKConfig+0x102>
 80023e6:	6833      	ldr	r3, [r6, #0]
 80023e8:	433b      	orrs	r3, r7
 80023ea:	6033      	str	r3, [r6, #0]
 80023ec:	f7ff f818 	bl	8001420 <HAL_GetTick>
 80023f0:	9001      	str	r0, [sp, #4]
 80023f2:	6833      	ldr	r3, [r6, #0]
 80023f4:	423b      	tst	r3, r7
 80023f6:	d19d      	bne.n	8002334 <HAL_RCCEx_PeriphCLKConfig+0x30>
 80023f8:	f7ff f812 	bl	8001420 <HAL_GetTick>
 80023fc:	9b01      	ldr	r3, [sp, #4]
 80023fe:	1ac0      	subs	r0, r0, r3
 8002400:	2864      	cmp	r0, #100	; 0x64
 8002402:	d9f6      	bls.n	80023f2 <HAL_RCCEx_PeriphCLKConfig+0xee>
 8002404:	2003      	movs	r0, #3
 8002406:	bdfe      	pop	{r1, r2, r3, r4, r5, r6, r7, pc}
 8002408:	4299      	cmp	r1, r3
 800240a:	d1a0      	bne.n	800234e <HAL_RCCEx_PeriphCLKConfig+0x4a>
 800240c:	6823      	ldr	r3, [r4, #0]
 800240e:	2001      	movs	r0, #1
 8002410:	039b      	lsls	r3, r3, #14
 8002412:	d59c      	bpl.n	800234e <HAL_RCCEx_PeriphCLKConfig+0x4a>
 8002414:	e7f7      	b.n	8002406 <HAL_RCCEx_PeriphCLKConfig+0x102>
 8002416:	428b      	cmp	r3, r1
 8002418:	d09c      	beq.n	8002354 <HAL_RCCEx_PeriphCLKConfig+0x50>
 800241a:	682b      	ldr	r3, [r5, #0]
 800241c:	069b      	lsls	r3, r3, #26
 800241e:	d599      	bpl.n	8002354 <HAL_RCCEx_PeriphCLKConfig+0x50>
 8002420:	2280      	movs	r2, #128	; 0x80
 8002422:	6d21      	ldr	r1, [r4, #80]	; 0x50
 8002424:	6d20      	ldr	r0, [r4, #80]	; 0x50
 8002426:	0312      	lsls	r2, r2, #12
 8002428:	4302      	orrs	r2, r0
 800242a:	6522      	str	r2, [r4, #80]	; 0x50
 800242c:	6d22      	ldr	r2, [r4, #80]	; 0x50
 800242e:	4b13      	ldr	r3, [pc, #76]	; (800247c <HAL_RCCEx_PeriphCLKConfig+0x178>)
 8002430:	4813      	ldr	r0, [pc, #76]	; (8002480 <HAL_RCCEx_PeriphCLKConfig+0x17c>)
 8002432:	400b      	ands	r3, r1
 8002434:	4002      	ands	r2, r0
 8002436:	6522      	str	r2, [r4, #80]	; 0x50
 8002438:	6523      	str	r3, [r4, #80]	; 0x50
 800243a:	05cb      	lsls	r3, r1, #23
 800243c:	d400      	bmi.n	8002440 <HAL_RCCEx_PeriphCLKConfig+0x13c>
 800243e:	e789      	b.n	8002354 <HAL_RCCEx_PeriphCLKConfig+0x50>
 8002440:	f7fe ffee 	bl	8001420 <HAL_GetTick>
 8002444:	2780      	movs	r7, #128	; 0x80
 8002446:	0006      	movs	r6, r0
 8002448:	00bf      	lsls	r7, r7, #2
 800244a:	6d23      	ldr	r3, [r4, #80]	; 0x50
 800244c:	423b      	tst	r3, r7
 800244e:	d000      	beq.n	8002452 <HAL_RCCEx_PeriphCLKConfig+0x14e>
 8002450:	e780      	b.n	8002354 <HAL_RCCEx_PeriphCLKConfig+0x50>
 8002452:	f7fe ffe5 	bl	8001420 <HAL_GetTick>
 8002456:	4b0b      	ldr	r3, [pc, #44]	; (8002484 <HAL_RCCEx_PeriphCLKConfig+0x180>)
 8002458:	1b80      	subs	r0, r0, r6
 800245a:	4298      	cmp	r0, r3
 800245c:	d9f5      	bls.n	800244a <HAL_RCCEx_PeriphCLKConfig+0x146>
 800245e:	e7d1      	b.n	8002404 <HAL_RCCEx_PeriphCLKConfig+0x100>
 8002460:	40021000 	.word	0x40021000
 8002464:	40007000 	.word	0x40007000
 8002468:	ffcfffff 	.word	0xffcfffff
 800246c:	efffffff 	.word	0xefffffff
 8002470:	fffff3ff 	.word	0xfffff3ff
 8002474:	ffffcfff 	.word	0xffffcfff
 8002478:	fff3ffff 	.word	0xfff3ffff
 800247c:	fffcffff 	.word	0xfffcffff
 8002480:	fff7ffff 	.word	0xfff7ffff
 8002484:	00001388 	.word	0x00001388

08002488 <HAL_SPI_Init>:
 8002488:	b570      	push	{r4, r5, r6, lr}
 800248a:	0004      	movs	r4, r0
 800248c:	2001      	movs	r0, #1
 800248e:	2c00      	cmp	r4, #0
 8002490:	d037      	beq.n	8002502 <HAL_SPI_Init+0x7a>
 8002492:	2300      	movs	r3, #0
 8002494:	0025      	movs	r5, r4
 8002496:	62a3      	str	r3, [r4, #40]	; 0x28
 8002498:	3551      	adds	r5, #81	; 0x51
 800249a:	782b      	ldrb	r3, [r5, #0]
 800249c:	b2db      	uxtb	r3, r3
 800249e:	2b00      	cmp	r3, #0
 80024a0:	d105      	bne.n	80024ae <HAL_SPI_Init+0x26>
 80024a2:	0022      	movs	r2, r4
 80024a4:	3250      	adds	r2, #80	; 0x50
 80024a6:	7013      	strb	r3, [r2, #0]
 80024a8:	0020      	movs	r0, r4
 80024aa:	f7fe fe0d 	bl	80010c8 <HAL_SPI_MspInit>
 80024ae:	2302      	movs	r3, #2
 80024b0:	2240      	movs	r2, #64	; 0x40
 80024b2:	6821      	ldr	r1, [r4, #0]
 80024b4:	702b      	strb	r3, [r5, #0]
 80024b6:	680b      	ldr	r3, [r1, #0]
 80024b8:	68a0      	ldr	r0, [r4, #8]
 80024ba:	4393      	bics	r3, r2
 80024bc:	600b      	str	r3, [r1, #0]
 80024be:	6863      	ldr	r3, [r4, #4]
 80024c0:	69a2      	ldr	r2, [r4, #24]
 80024c2:	4303      	orrs	r3, r0
 80024c4:	68e0      	ldr	r0, [r4, #12]
 80024c6:	4303      	orrs	r3, r0
 80024c8:	6920      	ldr	r0, [r4, #16]
 80024ca:	4303      	orrs	r3, r0
 80024cc:	6960      	ldr	r0, [r4, #20]
 80024ce:	4303      	orrs	r3, r0
 80024d0:	69e0      	ldr	r0, [r4, #28]
 80024d2:	4303      	orrs	r3, r0
 80024d4:	6a20      	ldr	r0, [r4, #32]
 80024d6:	4303      	orrs	r3, r0
 80024d8:	6aa0      	ldr	r0, [r4, #40]	; 0x28
 80024da:	4303      	orrs	r3, r0
 80024dc:	2080      	movs	r0, #128	; 0x80
 80024de:	0080      	lsls	r0, r0, #2
 80024e0:	4010      	ands	r0, r2
 80024e2:	4303      	orrs	r3, r0
 80024e4:	600b      	str	r3, [r1, #0]
 80024e6:	2304      	movs	r3, #4
 80024e8:	0c12      	lsrs	r2, r2, #16
 80024ea:	401a      	ands	r2, r3
 80024ec:	6a63      	ldr	r3, [r4, #36]	; 0x24
 80024ee:	2000      	movs	r0, #0
 80024f0:	431a      	orrs	r2, r3
 80024f2:	604a      	str	r2, [r1, #4]
 80024f4:	69cb      	ldr	r3, [r1, #28]
 80024f6:	4a03      	ldr	r2, [pc, #12]	; (8002504 <HAL_SPI_Init+0x7c>)
 80024f8:	4013      	ands	r3, r2
 80024fa:	61cb      	str	r3, [r1, #28]
 80024fc:	2301      	movs	r3, #1
 80024fe:	6560      	str	r0, [r4, #84]	; 0x54
 8002500:	702b      	strb	r3, [r5, #0]
 8002502:	bd70      	pop	{r4, r5, r6, pc}
 8002504:	fffff7ff 	.word	0xfffff7ff

08002508 <TIM_Base_SetConfig>:
 8002508:	2280      	movs	r2, #128	; 0x80
 800250a:	b510      	push	{r4, lr}
 800250c:	6803      	ldr	r3, [r0, #0]
 800250e:	05d2      	lsls	r2, r2, #23
 8002510:	4290      	cmp	r0, r2
 8002512:	d005      	beq.n	8002520 <TIM_Base_SetConfig+0x18>
 8002514:	4c10      	ldr	r4, [pc, #64]	; (8002558 <TIM_Base_SetConfig+0x50>)
 8002516:	42a0      	cmp	r0, r4
 8002518:	d002      	beq.n	8002520 <TIM_Base_SetConfig+0x18>
 800251a:	4c10      	ldr	r4, [pc, #64]	; (800255c <TIM_Base_SetConfig+0x54>)
 800251c:	42a0      	cmp	r0, r4
 800251e:	d10f      	bne.n	8002540 <TIM_Base_SetConfig+0x38>
 8002520:	2470      	movs	r4, #112	; 0x70
 8002522:	43a3      	bics	r3, r4
 8002524:	684c      	ldr	r4, [r1, #4]
 8002526:	4323      	orrs	r3, r4
 8002528:	4290      	cmp	r0, r2
 800252a:	d005      	beq.n	8002538 <TIM_Base_SetConfig+0x30>
 800252c:	4a0a      	ldr	r2, [pc, #40]	; (8002558 <TIM_Base_SetConfig+0x50>)
 800252e:	4290      	cmp	r0, r2
 8002530:	d002      	beq.n	8002538 <TIM_Base_SetConfig+0x30>
 8002532:	4a0a      	ldr	r2, [pc, #40]	; (800255c <TIM_Base_SetConfig+0x54>)
 8002534:	4290      	cmp	r0, r2
 8002536:	d103      	bne.n	8002540 <TIM_Base_SetConfig+0x38>
 8002538:	4a09      	ldr	r2, [pc, #36]	; (8002560 <TIM_Base_SetConfig+0x58>)
 800253a:	4013      	ands	r3, r2
 800253c:	68ca      	ldr	r2, [r1, #12]
 800253e:	4313      	orrs	r3, r2
 8002540:	2280      	movs	r2, #128	; 0x80
 8002542:	4393      	bics	r3, r2
 8002544:	690a      	ldr	r2, [r1, #16]
 8002546:	4313      	orrs	r3, r2
 8002548:	6003      	str	r3, [r0, #0]
 800254a:	688b      	ldr	r3, [r1, #8]
 800254c:	62c3      	str	r3, [r0, #44]	; 0x2c
 800254e:	680b      	ldr	r3, [r1, #0]
 8002550:	6283      	str	r3, [r0, #40]	; 0x28
 8002552:	2301      	movs	r3, #1
 8002554:	6143      	str	r3, [r0, #20]
 8002556:	bd10      	pop	{r4, pc}
 8002558:	40010800 	.word	0x40010800
 800255c:	40011400 	.word	0x40011400
 8002560:	fffffcff 	.word	0xfffffcff

08002564 <HAL_TIM_Base_MspInit>:
 8002564:	4770      	bx	lr

08002566 <HAL_TIM_Base_Init>:
 8002566:	b570      	push	{r4, r5, r6, lr}
 8002568:	0004      	movs	r4, r0
 800256a:	2001      	movs	r0, #1
 800256c:	2c00      	cmp	r4, #0
 800256e:	d014      	beq.n	800259a <HAL_TIM_Base_Init+0x34>
 8002570:	0025      	movs	r5, r4
 8002572:	3539      	adds	r5, #57	; 0x39
 8002574:	782b      	ldrb	r3, [r5, #0]
 8002576:	b2db      	uxtb	r3, r3
 8002578:	2b00      	cmp	r3, #0
 800257a:	d105      	bne.n	8002588 <HAL_TIM_Base_Init+0x22>
 800257c:	0022      	movs	r2, r4
 800257e:	3238      	adds	r2, #56	; 0x38
 8002580:	7013      	strb	r3, [r2, #0]
 8002582:	0020      	movs	r0, r4
 8002584:	f7ff ffee 	bl	8002564 <HAL_TIM_Base_MspInit>
 8002588:	2302      	movs	r3, #2
 800258a:	6820      	ldr	r0, [r4, #0]
 800258c:	702b      	strb	r3, [r5, #0]
 800258e:	1d21      	adds	r1, r4, #4
 8002590:	f7ff ffba 	bl	8002508 <TIM_Base_SetConfig>
 8002594:	2301      	movs	r3, #1
 8002596:	2000      	movs	r0, #0
 8002598:	702b      	strb	r3, [r5, #0]
 800259a:	bd70      	pop	{r4, r5, r6, pc}

0800259c <HAL_TIM_Base_Start_IT>:
 800259c:	2201      	movs	r2, #1
 800259e:	6803      	ldr	r3, [r0, #0]
 80025a0:	2007      	movs	r0, #7
 80025a2:	68d9      	ldr	r1, [r3, #12]
 80025a4:	4311      	orrs	r1, r2
 80025a6:	60d9      	str	r1, [r3, #12]
 80025a8:	6899      	ldr	r1, [r3, #8]
 80025aa:	4001      	ands	r1, r0
 80025ac:	2906      	cmp	r1, #6
 80025ae:	d002      	beq.n	80025b6 <HAL_TIM_Base_Start_IT+0x1a>
 80025b0:	6819      	ldr	r1, [r3, #0]
 80025b2:	430a      	orrs	r2, r1
 80025b4:	601a      	str	r2, [r3, #0]
 80025b6:	2000      	movs	r0, #0
 80025b8:	4770      	bx	lr

080025ba <HAL_TIM_OC_DelayElapsedCallback>:
 80025ba:	4770      	bx	lr

080025bc <HAL_TIM_IC_CaptureCallback>:
 80025bc:	4770      	bx	lr

080025be <HAL_TIM_PWM_PulseFinishedCallback>:
 80025be:	4770      	bx	lr

080025c0 <HAL_TIM_TriggerCallback>:
 80025c0:	4770      	bx	lr

080025c2 <HAL_TIM_IRQHandler>:
 80025c2:	2202      	movs	r2, #2
 80025c4:	6803      	ldr	r3, [r0, #0]
 80025c6:	b510      	push	{r4, lr}
 80025c8:	6919      	ldr	r1, [r3, #16]
 80025ca:	0004      	movs	r4, r0
 80025cc:	4211      	tst	r1, r2
 80025ce:	d00d      	beq.n	80025ec <HAL_TIM_IRQHandler+0x2a>
 80025d0:	68d9      	ldr	r1, [r3, #12]
 80025d2:	4211      	tst	r1, r2
 80025d4:	d00a      	beq.n	80025ec <HAL_TIM_IRQHandler+0x2a>
 80025d6:	3a05      	subs	r2, #5
 80025d8:	611a      	str	r2, [r3, #16]
 80025da:	699b      	ldr	r3, [r3, #24]
 80025dc:	3204      	adds	r2, #4
 80025de:	7602      	strb	r2, [r0, #24]
 80025e0:	079b      	lsls	r3, r3, #30
 80025e2:	d05e      	beq.n	80026a2 <HAL_TIM_IRQHandler+0xe0>
 80025e4:	f7ff ffea 	bl	80025bc <HAL_TIM_IC_CaptureCallback>
 80025e8:	2300      	movs	r3, #0
 80025ea:	7623      	strb	r3, [r4, #24]
 80025ec:	2204      	movs	r2, #4
 80025ee:	6823      	ldr	r3, [r4, #0]
 80025f0:	6919      	ldr	r1, [r3, #16]
 80025f2:	4211      	tst	r1, r2
 80025f4:	d010      	beq.n	8002618 <HAL_TIM_IRQHandler+0x56>
 80025f6:	68d9      	ldr	r1, [r3, #12]
 80025f8:	4211      	tst	r1, r2
 80025fa:	d00d      	beq.n	8002618 <HAL_TIM_IRQHandler+0x56>
 80025fc:	3a09      	subs	r2, #9
 80025fe:	611a      	str	r2, [r3, #16]
 8002600:	3207      	adds	r2, #7
 8002602:	7622      	strb	r2, [r4, #24]
 8002604:	699a      	ldr	r2, [r3, #24]
 8002606:	23c0      	movs	r3, #192	; 0xc0
 8002608:	009b      	lsls	r3, r3, #2
 800260a:	0020      	movs	r0, r4
 800260c:	421a      	tst	r2, r3
 800260e:	d04e      	beq.n	80026ae <HAL_TIM_IRQHandler+0xec>
 8002610:	f7ff ffd4 	bl	80025bc <HAL_TIM_IC_CaptureCallback>
 8002614:	2300      	movs	r3, #0
 8002616:	7623      	strb	r3, [r4, #24]
 8002618:	2208      	movs	r2, #8
 800261a:	6823      	ldr	r3, [r4, #0]
 800261c:	6919      	ldr	r1, [r3, #16]
 800261e:	4211      	tst	r1, r2
 8002620:	d00e      	beq.n	8002640 <HAL_TIM_IRQHandler+0x7e>
 8002622:	68d9      	ldr	r1, [r3, #12]
 8002624:	4211      	tst	r1, r2
 8002626:	d00b      	beq.n	8002640 <HAL_TIM_IRQHandler+0x7e>
 8002628:	3a11      	subs	r2, #17
 800262a:	611a      	str	r2, [r3, #16]
 800262c:	69db      	ldr	r3, [r3, #28]
 800262e:	320d      	adds	r2, #13
 8002630:	7622      	strb	r2, [r4, #24]
 8002632:	0020      	movs	r0, r4
 8002634:	079b      	lsls	r3, r3, #30
 8002636:	d040      	beq.n	80026ba <HAL_TIM_IRQHandler+0xf8>
 8002638:	f7ff ffc0 	bl	80025bc <HAL_TIM_IC_CaptureCallback>
 800263c:	2300      	movs	r3, #0
 800263e:	7623      	strb	r3, [r4, #24]
 8002640:	2210      	movs	r2, #16
 8002642:	6823      	ldr	r3, [r4, #0]
 8002644:	6919      	ldr	r1, [r3, #16]
 8002646:	4211      	tst	r1, r2
 8002648:	d010      	beq.n	800266c <HAL_TIM_IRQHandler+0xaa>
 800264a:	68d9      	ldr	r1, [r3, #12]
 800264c:	4211      	tst	r1, r2
 800264e:	d00d      	beq.n	800266c <HAL_TIM_IRQHandler+0xaa>
 8002650:	3a21      	subs	r2, #33	; 0x21
 8002652:	611a      	str	r2, [r3, #16]
 8002654:	3219      	adds	r2, #25
 8002656:	7622      	strb	r2, [r4, #24]
 8002658:	69da      	ldr	r2, [r3, #28]
 800265a:	23c0      	movs	r3, #192	; 0xc0
 800265c:	009b      	lsls	r3, r3, #2
 800265e:	0020      	movs	r0, r4
 8002660:	421a      	tst	r2, r3
 8002662:	d030      	beq.n	80026c6 <HAL_TIM_IRQHandler+0x104>
 8002664:	f7ff ffaa 	bl	80025bc <HAL_TIM_IC_CaptureCallback>
 8002668:	2300      	movs	r3, #0
 800266a:	7623      	strb	r3, [r4, #24]
 800266c:	2201      	movs	r2, #1
 800266e:	6823      	ldr	r3, [r4, #0]
 8002670:	6919      	ldr	r1, [r3, #16]
 8002672:	4211      	tst	r1, r2
 8002674:	d007      	beq.n	8002686 <HAL_TIM_IRQHandler+0xc4>
 8002676:	68d9      	ldr	r1, [r3, #12]
 8002678:	4211      	tst	r1, r2
 800267a:	d004      	beq.n	8002686 <HAL_TIM_IRQHandler+0xc4>
 800267c:	3a03      	subs	r2, #3
 800267e:	611a      	str	r2, [r3, #16]
 8002680:	0020      	movs	r0, r4
 8002682:	f7fe fc9f 	bl	8000fc4 <HAL_TIM_PeriodElapsedCallback>
 8002686:	2240      	movs	r2, #64	; 0x40
 8002688:	6823      	ldr	r3, [r4, #0]
 800268a:	6919      	ldr	r1, [r3, #16]
 800268c:	4211      	tst	r1, r2
 800268e:	d007      	beq.n	80026a0 <HAL_TIM_IRQHandler+0xde>
 8002690:	68d9      	ldr	r1, [r3, #12]
 8002692:	4211      	tst	r1, r2
 8002694:	d004      	beq.n	80026a0 <HAL_TIM_IRQHandler+0xde>
 8002696:	3a81      	subs	r2, #129	; 0x81
 8002698:	611a      	str	r2, [r3, #16]
 800269a:	0020      	movs	r0, r4
 800269c:	f7ff ff90 	bl	80025c0 <HAL_TIM_TriggerCallback>
 80026a0:	bd10      	pop	{r4, pc}
 80026a2:	f7ff ff8a 	bl	80025ba <HAL_TIM_OC_DelayElapsedCallback>
 80026a6:	0020      	movs	r0, r4
 80026a8:	f7ff ff89 	bl	80025be <HAL_TIM_PWM_PulseFinishedCallback>
 80026ac:	e79c      	b.n	80025e8 <HAL_TIM_IRQHandler+0x26>
 80026ae:	f7ff ff84 	bl	80025ba <HAL_TIM_OC_DelayElapsedCallback>
 80026b2:	0020      	movs	r0, r4
 80026b4:	f7ff ff83 	bl	80025be <HAL_TIM_PWM_PulseFinishedCallback>
 80026b8:	e7ac      	b.n	8002614 <HAL_TIM_IRQHandler+0x52>
 80026ba:	f7ff ff7e 	bl	80025ba <HAL_TIM_OC_DelayElapsedCallback>
 80026be:	0020      	movs	r0, r4
 80026c0:	f7ff ff7d 	bl	80025be <HAL_TIM_PWM_PulseFinishedCallback>
 80026c4:	e7ba      	b.n	800263c <HAL_TIM_IRQHandler+0x7a>
 80026c6:	f7ff ff78 	bl	80025ba <HAL_TIM_OC_DelayElapsedCallback>
 80026ca:	0020      	movs	r0, r4
 80026cc:	f7ff ff77 	bl	80025be <HAL_TIM_PWM_PulseFinishedCallback>
 80026d0:	e7ca      	b.n	8002668 <HAL_TIM_IRQHandler+0xa6>
	...

080026d4 <UART_SetConfig>:
 80026d4:	b5f8      	push	{r3, r4, r5, r6, r7, lr}
 80026d6:	0004      	movs	r4, r0
 80026d8:	6925      	ldr	r5, [r4, #16]
 80026da:	68a2      	ldr	r2, [r4, #8]
 80026dc:	6803      	ldr	r3, [r0, #0]
 80026de:	432a      	orrs	r2, r5
 80026e0:	6965      	ldr	r5, [r4, #20]
 80026e2:	69c1      	ldr	r1, [r0, #28]
 80026e4:	432a      	orrs	r2, r5
 80026e6:	6818      	ldr	r0, [r3, #0]
 80026e8:	4d7a      	ldr	r5, [pc, #488]	; (80028d4 <UART_SetConfig+0x200>)
 80026ea:	430a      	orrs	r2, r1
 80026ec:	4028      	ands	r0, r5
 80026ee:	4302      	orrs	r2, r0
 80026f0:	601a      	str	r2, [r3, #0]
 80026f2:	685a      	ldr	r2, [r3, #4]
 80026f4:	4878      	ldr	r0, [pc, #480]	; (80028d8 <UART_SetConfig+0x204>)
 80026f6:	4d79      	ldr	r5, [pc, #484]	; (80028dc <UART_SetConfig+0x208>)
 80026f8:	4002      	ands	r2, r0
 80026fa:	68e0      	ldr	r0, [r4, #12]
 80026fc:	4302      	orrs	r2, r0
 80026fe:	605a      	str	r2, [r3, #4]
 8002700:	69a0      	ldr	r0, [r4, #24]
 8002702:	42ab      	cmp	r3, r5
 8002704:	d001      	beq.n	800270a <UART_SetConfig+0x36>
 8002706:	6a22      	ldr	r2, [r4, #32]
 8002708:	4310      	orrs	r0, r2
 800270a:	689a      	ldr	r2, [r3, #8]
 800270c:	4e74      	ldr	r6, [pc, #464]	; (80028e0 <UART_SetConfig+0x20c>)
 800270e:	4032      	ands	r2, r6
 8002710:	4302      	orrs	r2, r0
 8002712:	609a      	str	r2, [r3, #8]
 8002714:	4a73      	ldr	r2, [pc, #460]	; (80028e4 <UART_SetConfig+0x210>)
 8002716:	4293      	cmp	r3, r2
 8002718:	d114      	bne.n	8002744 <UART_SetConfig+0x70>
 800271a:	2203      	movs	r2, #3
 800271c:	4b72      	ldr	r3, [pc, #456]	; (80028e8 <UART_SetConfig+0x214>)
 800271e:	6cdb      	ldr	r3, [r3, #76]	; 0x4c
 8002720:	4013      	ands	r3, r2
 8002722:	4a72      	ldr	r2, [pc, #456]	; (80028ec <UART_SetConfig+0x218>)
 8002724:	5cd0      	ldrb	r0, [r2, r3]
 8002726:	2380      	movs	r3, #128	; 0x80
 8002728:	021b      	lsls	r3, r3, #8
 800272a:	4299      	cmp	r1, r3
 800272c:	d000      	beq.n	8002730 <UART_SetConfig+0x5c>
 800272e:	e094      	b.n	800285a <UART_SetConfig+0x186>
 8002730:	2808      	cmp	r0, #8
 8002732:	d900      	bls.n	8002736 <UART_SetConfig+0x62>
 8002734:	e08e      	b.n	8002854 <UART_SetConfig+0x180>
 8002736:	f7fd fce7 	bl	8000108 <__gnu_thumb1_case_uqi>
 800273a:	6159      	.short	0x6159
 800273c:	8d858d64 	.word	0x8d858d64
 8002740:	8d8d      	.short	0x8d8d
 8002742:	88          	.byte	0x88
 8002743:	00          	.byte	0x00
 8002744:	4a6a      	ldr	r2, [pc, #424]	; (80028f0 <UART_SetConfig+0x21c>)
 8002746:	4293      	cmp	r3, r2
 8002748:	d105      	bne.n	8002756 <UART_SetConfig+0x82>
 800274a:	220c      	movs	r2, #12
 800274c:	4b66      	ldr	r3, [pc, #408]	; (80028e8 <UART_SetConfig+0x214>)
 800274e:	6cdb      	ldr	r3, [r3, #76]	; 0x4c
 8002750:	4013      	ands	r3, r2
 8002752:	4a68      	ldr	r2, [pc, #416]	; (80028f4 <UART_SetConfig+0x220>)
 8002754:	e7e6      	b.n	8002724 <UART_SetConfig+0x50>
 8002756:	42ab      	cmp	r3, r5
 8002758:	d000      	beq.n	800275c <UART_SetConfig+0x88>
 800275a:	e0b4      	b.n	80028c6 <UART_SetConfig+0x1f2>
 800275c:	21c0      	movs	r1, #192	; 0xc0
 800275e:	2080      	movs	r0, #128	; 0x80
 8002760:	4a61      	ldr	r2, [pc, #388]	; (80028e8 <UART_SetConfig+0x214>)
 8002762:	0109      	lsls	r1, r1, #4
 8002764:	6cd3      	ldr	r3, [r2, #76]	; 0x4c
 8002766:	00c0      	lsls	r0, r0, #3
 8002768:	400b      	ands	r3, r1
 800276a:	4283      	cmp	r3, r0
 800276c:	d03b      	beq.n	80027e6 <UART_SetConfig+0x112>
 800276e:	d803      	bhi.n	8002778 <UART_SetConfig+0xa4>
 8002770:	2b00      	cmp	r3, #0
 8002772:	d00a      	beq.n	800278a <UART_SetConfig+0xb6>
 8002774:	2501      	movs	r5, #1
 8002776:	e00d      	b.n	8002794 <UART_SetConfig+0xc0>
 8002778:	2080      	movs	r0, #128	; 0x80
 800277a:	0100      	lsls	r0, r0, #4
 800277c:	4283      	cmp	r3, r0
 800277e:	d00e      	beq.n	800279e <UART_SetConfig+0xca>
 8002780:	428b      	cmp	r3, r1
 8002782:	d1f7      	bne.n	8002774 <UART_SetConfig+0xa0>
 8002784:	2080      	movs	r0, #128	; 0x80
 8002786:	0200      	lsls	r0, r0, #8
 8002788:	e010      	b.n	80027ac <UART_SetConfig+0xd8>
 800278a:	f7ff fd7b 	bl	8002284 <HAL_RCC_GetPCLK1Freq>
 800278e:	2500      	movs	r5, #0
 8002790:	42a8      	cmp	r0, r5
 8002792:	d10b      	bne.n	80027ac <UART_SetConfig+0xd8>
 8002794:	2300      	movs	r3, #0
 8002796:	0028      	movs	r0, r5
 8002798:	6623      	str	r3, [r4, #96]	; 0x60
 800279a:	6663      	str	r3, [r4, #100]	; 0x64
 800279c:	bdf8      	pop	{r3, r4, r5, r6, r7, pc}
 800279e:	6810      	ldr	r0, [r2, #0]
 80027a0:	4b55      	ldr	r3, [pc, #340]	; (80028f8 <UART_SetConfig+0x224>)
 80027a2:	06c0      	lsls	r0, r0, #27
 80027a4:	17c0      	asrs	r0, r0, #31
 80027a6:	4018      	ands	r0, r3
 80027a8:	4b54      	ldr	r3, [pc, #336]	; (80028fc <UART_SetConfig+0x228>)
 80027aa:	18c0      	adds	r0, r0, r3
 80027ac:	2203      	movs	r2, #3
 80027ae:	6863      	ldr	r3, [r4, #4]
 80027b0:	435a      	muls	r2, r3
 80027b2:	4282      	cmp	r2, r0
 80027b4:	d8de      	bhi.n	8002774 <UART_SetConfig+0xa0>
 80027b6:	031a      	lsls	r2, r3, #12
 80027b8:	4282      	cmp	r2, r0
 80027ba:	d3db      	bcc.n	8002774 <UART_SetConfig+0xa0>
 80027bc:	2700      	movs	r7, #0
 80027be:	0e02      	lsrs	r2, r0, #24
 80027c0:	0201      	lsls	r1, r0, #8
 80027c2:	085e      	lsrs	r6, r3, #1
 80027c4:	1989      	adds	r1, r1, r6
 80027c6:	417a      	adcs	r2, r7
 80027c8:	0008      	movs	r0, r1
 80027ca:	0011      	movs	r1, r2
 80027cc:	001a      	movs	r2, r3
 80027ce:	003b      	movs	r3, r7
 80027d0:	f7fd fd30 	bl	8000234 <__aeabi_uldivmod>
 80027d4:	4b4a      	ldr	r3, [pc, #296]	; (8002900 <UART_SetConfig+0x22c>)
 80027d6:	18c2      	adds	r2, r0, r3
 80027d8:	4b4a      	ldr	r3, [pc, #296]	; (8002904 <UART_SetConfig+0x230>)
 80027da:	429a      	cmp	r2, r3
 80027dc:	d8ca      	bhi.n	8002774 <UART_SetConfig+0xa0>
 80027de:	6823      	ldr	r3, [r4, #0]
 80027e0:	003d      	movs	r5, r7
 80027e2:	60d8      	str	r0, [r3, #12]
 80027e4:	e7d6      	b.n	8002794 <UART_SetConfig+0xc0>
 80027e6:	f7ff fa0b 	bl	8001c00 <HAL_RCC_GetSysClockFreq>
 80027ea:	e7d0      	b.n	800278e <UART_SetConfig+0xba>
 80027ec:	f7ff fd4a 	bl	8002284 <HAL_RCC_GetPCLK1Freq>
 80027f0:	6863      	ldr	r3, [r4, #4]
 80027f2:	0040      	lsls	r0, r0, #1
 80027f4:	085b      	lsrs	r3, r3, #1
 80027f6:	18c0      	adds	r0, r0, r3
 80027f8:	6861      	ldr	r1, [r4, #4]
 80027fa:	e00b      	b.n	8002814 <UART_SetConfig+0x140>
 80027fc:	f7ff fd52 	bl	80022a4 <HAL_RCC_GetPCLK2Freq>
 8002800:	e7f6      	b.n	80027f0 <UART_SetConfig+0x11c>
 8002802:	2510      	movs	r5, #16
 8002804:	4b38      	ldr	r3, [pc, #224]	; (80028e8 <UART_SetConfig+0x214>)
 8002806:	6861      	ldr	r1, [r4, #4]
 8002808:	681a      	ldr	r2, [r3, #0]
 800280a:	0848      	lsrs	r0, r1, #1
 800280c:	4015      	ands	r5, r2
 800280e:	d006      	beq.n	800281e <UART_SetConfig+0x14a>
 8002810:	4b3d      	ldr	r3, [pc, #244]	; (8002908 <UART_SetConfig+0x234>)
 8002812:	18c0      	adds	r0, r0, r3
 8002814:	f7fd fc82 	bl	800011c <__udivsi3>
 8002818:	2500      	movs	r5, #0
 800281a:	b283      	uxth	r3, r0
 800281c:	e004      	b.n	8002828 <UART_SetConfig+0x154>
 800281e:	4b3b      	ldr	r3, [pc, #236]	; (800290c <UART_SetConfig+0x238>)
 8002820:	18c0      	adds	r0, r0, r3
 8002822:	f7fd fc7b 	bl	800011c <__udivsi3>
 8002826:	b283      	uxth	r3, r0
 8002828:	0019      	movs	r1, r3
 800282a:	4839      	ldr	r0, [pc, #228]	; (8002910 <UART_SetConfig+0x23c>)
 800282c:	3910      	subs	r1, #16
 800282e:	4281      	cmp	r1, r0
 8002830:	d8a0      	bhi.n	8002774 <UART_SetConfig+0xa0>
 8002832:	210f      	movs	r1, #15
 8002834:	0018      	movs	r0, r3
 8002836:	071b      	lsls	r3, r3, #28
 8002838:	4388      	bics	r0, r1
 800283a:	0f5b      	lsrs	r3, r3, #29
 800283c:	6821      	ldr	r1, [r4, #0]
 800283e:	4303      	orrs	r3, r0
 8002840:	60cb      	str	r3, [r1, #12]
 8002842:	e7a7      	b.n	8002794 <UART_SetConfig+0xc0>
 8002844:	f7ff f9dc 	bl	8001c00 <HAL_RCC_GetSysClockFreq>
 8002848:	e7d2      	b.n	80027f0 <UART_SetConfig+0x11c>
 800284a:	6863      	ldr	r3, [r4, #4]
 800284c:	0858      	lsrs	r0, r3, #1
 800284e:	2380      	movs	r3, #128	; 0x80
 8002850:	025b      	lsls	r3, r3, #9
 8002852:	e7d0      	b.n	80027f6 <UART_SetConfig+0x122>
 8002854:	2501      	movs	r5, #1
 8002856:	2300      	movs	r3, #0
 8002858:	e7e6      	b.n	8002828 <UART_SetConfig+0x154>
 800285a:	2808      	cmp	r0, #8
 800285c:	d837      	bhi.n	80028ce <UART_SetConfig+0x1fa>
 800285e:	f7fd fc53 	bl	8000108 <__gnu_thumb1_case_uqi>
 8002862:	0c05      	.short	0x0c05
 8002864:	362a360f 	.word	0x362a360f
 8002868:	3636      	.short	0x3636
 800286a:	2d          	.byte	0x2d
 800286b:	00          	.byte	0x00
 800286c:	f7ff fd0a 	bl	8002284 <HAL_RCC_GetPCLK1Freq>
 8002870:	6863      	ldr	r3, [r4, #4]
 8002872:	085b      	lsrs	r3, r3, #1
 8002874:	18c0      	adds	r0, r0, r3
 8002876:	6861      	ldr	r1, [r4, #4]
 8002878:	e00b      	b.n	8002892 <UART_SetConfig+0x1be>
 800287a:	f7ff fd13 	bl	80022a4 <HAL_RCC_GetPCLK2Freq>
 800287e:	e7f7      	b.n	8002870 <UART_SetConfig+0x19c>
 8002880:	2510      	movs	r5, #16
 8002882:	4b19      	ldr	r3, [pc, #100]	; (80028e8 <UART_SetConfig+0x214>)
 8002884:	6861      	ldr	r1, [r4, #4]
 8002886:	681a      	ldr	r2, [r3, #0]
 8002888:	0848      	lsrs	r0, r1, #1
 800288a:	4015      	ands	r5, r2
 800288c:	d00d      	beq.n	80028aa <UART_SetConfig+0x1d6>
 800288e:	4b21      	ldr	r3, [pc, #132]	; (8002914 <UART_SetConfig+0x240>)
 8002890:	18c0      	adds	r0, r0, r3
 8002892:	f7fd fc43 	bl	800011c <__udivsi3>
 8002896:	2500      	movs	r5, #0
 8002898:	b283      	uxth	r3, r0
 800289a:	0019      	movs	r1, r3
 800289c:	481c      	ldr	r0, [pc, #112]	; (8002910 <UART_SetConfig+0x23c>)
 800289e:	3910      	subs	r1, #16
 80028a0:	4281      	cmp	r1, r0
 80028a2:	d900      	bls.n	80028a6 <UART_SetConfig+0x1d2>
 80028a4:	e766      	b.n	8002774 <UART_SetConfig+0xa0>
 80028a6:	6821      	ldr	r1, [r4, #0]
 80028a8:	e7ca      	b.n	8002840 <UART_SetConfig+0x16c>
 80028aa:	4b14      	ldr	r3, [pc, #80]	; (80028fc <UART_SetConfig+0x228>)
 80028ac:	18c0      	adds	r0, r0, r3
 80028ae:	f7fd fc35 	bl	800011c <__udivsi3>
 80028b2:	b283      	uxth	r3, r0
 80028b4:	e7f1      	b.n	800289a <UART_SetConfig+0x1c6>
 80028b6:	f7ff f9a3 	bl	8001c00 <HAL_RCC_GetSysClockFreq>
 80028ba:	e7d9      	b.n	8002870 <UART_SetConfig+0x19c>
 80028bc:	6863      	ldr	r3, [r4, #4]
 80028be:	0858      	lsrs	r0, r3, #1
 80028c0:	2380      	movs	r3, #128	; 0x80
 80028c2:	021b      	lsls	r3, r3, #8
 80028c4:	e7d6      	b.n	8002874 <UART_SetConfig+0x1a0>
 80028c6:	2380      	movs	r3, #128	; 0x80
 80028c8:	021b      	lsls	r3, r3, #8
 80028ca:	4299      	cmp	r1, r3
 80028cc:	d0c2      	beq.n	8002854 <UART_SetConfig+0x180>
 80028ce:	2501      	movs	r5, #1
 80028d0:	2300      	movs	r3, #0
 80028d2:	e7e2      	b.n	800289a <UART_SetConfig+0x1c6>
 80028d4:	efff69f3 	.word	0xefff69f3
 80028d8:	ffffcfff 	.word	0xffffcfff
 80028dc:	40004800 	.word	0x40004800
 80028e0:	fffff4ff 	.word	0xfffff4ff
 80028e4:	40013800 	.word	0x40013800
 80028e8:	40021000 	.word	0x40021000
 80028ec:	08003754 	.word	0x08003754
 80028f0:	40004400 	.word	0x40004400
 80028f4:	08003758 	.word	0x08003758
 80028f8:	ff48e500 	.word	0xff48e500
 80028fc:	00f42400 	.word	0x00f42400
 8002900:	fffffd00 	.word	0xfffffd00
 8002904:	000ffcff 	.word	0x000ffcff
 8002908:	007a1200 	.word	0x007a1200
 800290c:	01e84800 	.word	0x01e84800
 8002910:	0000ffef 	.word	0x0000ffef
 8002914:	003d0900 	.word	0x003d0900

08002918 <UART_AdvFeatureConfig>:
 8002918:	6a43      	ldr	r3, [r0, #36]	; 0x24
 800291a:	b530      	push	{r4, r5, lr}
 800291c:	07da      	lsls	r2, r3, #31
 800291e:	d506      	bpl.n	800292e <UART_AdvFeatureConfig+0x16>
 8002920:	6801      	ldr	r1, [r0, #0]
 8002922:	4c28      	ldr	r4, [pc, #160]	; (80029c4 <UART_AdvFeatureConfig+0xac>)
 8002924:	684a      	ldr	r2, [r1, #4]
 8002926:	4022      	ands	r2, r4
 8002928:	6a84      	ldr	r4, [r0, #40]	; 0x28
 800292a:	4322      	orrs	r2, r4
 800292c:	604a      	str	r2, [r1, #4]
 800292e:	079a      	lsls	r2, r3, #30
 8002930:	d506      	bpl.n	8002940 <UART_AdvFeatureConfig+0x28>
 8002932:	6801      	ldr	r1, [r0, #0]
 8002934:	4c24      	ldr	r4, [pc, #144]	; (80029c8 <UART_AdvFeatureConfig+0xb0>)
 8002936:	684a      	ldr	r2, [r1, #4]
 8002938:	4022      	ands	r2, r4
 800293a:	6ac4      	ldr	r4, [r0, #44]	; 0x2c
 800293c:	4322      	orrs	r2, r4
 800293e:	604a      	str	r2, [r1, #4]
 8002940:	075a      	lsls	r2, r3, #29
 8002942:	d506      	bpl.n	8002952 <UART_AdvFeatureConfig+0x3a>
 8002944:	6801      	ldr	r1, [r0, #0]
 8002946:	4c21      	ldr	r4, [pc, #132]	; (80029cc <UART_AdvFeatureConfig+0xb4>)
 8002948:	684a      	ldr	r2, [r1, #4]
 800294a:	4022      	ands	r2, r4
 800294c:	6b04      	ldr	r4, [r0, #48]	; 0x30
 800294e:	4322      	orrs	r2, r4
 8002950:	604a      	str	r2, [r1, #4]
 8002952:	071a      	lsls	r2, r3, #28
 8002954:	d506      	bpl.n	8002964 <UART_AdvFeatureConfig+0x4c>
 8002956:	6801      	ldr	r1, [r0, #0]
 8002958:	4c1d      	ldr	r4, [pc, #116]	; (80029d0 <UART_AdvFeatureConfig+0xb8>)
 800295a:	684a      	ldr	r2, [r1, #4]
 800295c:	4022      	ands	r2, r4
 800295e:	6b44      	ldr	r4, [r0, #52]	; 0x34
 8002960:	4322      	orrs	r2, r4
 8002962:	604a      	str	r2, [r1, #4]
 8002964:	06da      	lsls	r2, r3, #27
 8002966:	d506      	bpl.n	8002976 <UART_AdvFeatureConfig+0x5e>
 8002968:	6801      	ldr	r1, [r0, #0]
 800296a:	4c1a      	ldr	r4, [pc, #104]	; (80029d4 <UART_AdvFeatureConfig+0xbc>)
 800296c:	688a      	ldr	r2, [r1, #8]
 800296e:	4022      	ands	r2, r4
 8002970:	6b84      	ldr	r4, [r0, #56]	; 0x38
 8002972:	4322      	orrs	r2, r4
 8002974:	608a      	str	r2, [r1, #8]
 8002976:	069a      	lsls	r2, r3, #26
 8002978:	d506      	bpl.n	8002988 <UART_AdvFeatureConfig+0x70>
 800297a:	6801      	ldr	r1, [r0, #0]
 800297c:	4c16      	ldr	r4, [pc, #88]	; (80029d8 <UART_AdvFeatureConfig+0xc0>)
 800297e:	688a      	ldr	r2, [r1, #8]
 8002980:	4022      	ands	r2, r4
 8002982:	6bc4      	ldr	r4, [r0, #60]	; 0x3c
 8002984:	4322      	orrs	r2, r4
 8002986:	608a      	str	r2, [r1, #8]
 8002988:	065a      	lsls	r2, r3, #25
 800298a:	d510      	bpl.n	80029ae <UART_AdvFeatureConfig+0x96>
 800298c:	6801      	ldr	r1, [r0, #0]
 800298e:	4d13      	ldr	r5, [pc, #76]	; (80029dc <UART_AdvFeatureConfig+0xc4>)
 8002990:	684a      	ldr	r2, [r1, #4]
 8002992:	6c04      	ldr	r4, [r0, #64]	; 0x40
 8002994:	402a      	ands	r2, r5
 8002996:	4322      	orrs	r2, r4
 8002998:	604a      	str	r2, [r1, #4]
 800299a:	2280      	movs	r2, #128	; 0x80
 800299c:	0352      	lsls	r2, r2, #13
 800299e:	4294      	cmp	r4, r2
 80029a0:	d105      	bne.n	80029ae <UART_AdvFeatureConfig+0x96>
 80029a2:	684a      	ldr	r2, [r1, #4]
 80029a4:	4c0e      	ldr	r4, [pc, #56]	; (80029e0 <UART_AdvFeatureConfig+0xc8>)
 80029a6:	4022      	ands	r2, r4
 80029a8:	6c44      	ldr	r4, [r0, #68]	; 0x44
 80029aa:	4322      	orrs	r2, r4
 80029ac:	604a      	str	r2, [r1, #4]
 80029ae:	061b      	lsls	r3, r3, #24
 80029b0:	d506      	bpl.n	80029c0 <UART_AdvFeatureConfig+0xa8>
 80029b2:	6802      	ldr	r2, [r0, #0]
 80029b4:	490b      	ldr	r1, [pc, #44]	; (80029e4 <UART_AdvFeatureConfig+0xcc>)
 80029b6:	6853      	ldr	r3, [r2, #4]
 80029b8:	400b      	ands	r3, r1
 80029ba:	6c81      	ldr	r1, [r0, #72]	; 0x48
 80029bc:	430b      	orrs	r3, r1
 80029be:	6053      	str	r3, [r2, #4]
 80029c0:	bd30      	pop	{r4, r5, pc}
 80029c2:	46c0      	nop			; (mov r8, r8)
 80029c4:	fffdffff 	.word	0xfffdffff
 80029c8:	fffeffff 	.word	0xfffeffff
 80029cc:	fffbffff 	.word	0xfffbffff
 80029d0:	ffff7fff 	.word	0xffff7fff
 80029d4:	ffffefff 	.word	0xffffefff
 80029d8:	ffffdfff 	.word	0xffffdfff
 80029dc:	ffefffff 	.word	0xffefffff
 80029e0:	ff9fffff 	.word	0xff9fffff
 80029e4:	fff7ffff 	.word	0xfff7ffff

080029e8 <UART_WaitOnFlagUntilTimeout>:
 80029e8:	b5f8      	push	{r3, r4, r5, r6, r7, lr}
 80029ea:	0004      	movs	r4, r0
 80029ec:	000e      	movs	r6, r1
 80029ee:	0015      	movs	r5, r2
 80029f0:	001f      	movs	r7, r3
 80029f2:	6822      	ldr	r2, [r4, #0]
 80029f4:	69d3      	ldr	r3, [r2, #28]
 80029f6:	4033      	ands	r3, r6
 80029f8:	1b9b      	subs	r3, r3, r6
 80029fa:	4259      	negs	r1, r3
 80029fc:	414b      	adcs	r3, r1
 80029fe:	42ab      	cmp	r3, r5
 8002a00:	d001      	beq.n	8002a06 <UART_WaitOnFlagUntilTimeout+0x1e>
 8002a02:	2000      	movs	r0, #0
 8002a04:	e01b      	b.n	8002a3e <UART_WaitOnFlagUntilTimeout+0x56>
 8002a06:	9b06      	ldr	r3, [sp, #24]
 8002a08:	3301      	adds	r3, #1
 8002a0a:	d0f3      	beq.n	80029f4 <UART_WaitOnFlagUntilTimeout+0xc>
 8002a0c:	f7fe fd08 	bl	8001420 <HAL_GetTick>
 8002a10:	9b06      	ldr	r3, [sp, #24]
 8002a12:	1bc0      	subs	r0, r0, r7
 8002a14:	4298      	cmp	r0, r3
 8002a16:	d801      	bhi.n	8002a1c <UART_WaitOnFlagUntilTimeout+0x34>
 8002a18:	2b00      	cmp	r3, #0
 8002a1a:	d1ea      	bne.n	80029f2 <UART_WaitOnFlagUntilTimeout+0xa>
 8002a1c:	6823      	ldr	r3, [r4, #0]
 8002a1e:	4908      	ldr	r1, [pc, #32]	; (8002a40 <UART_WaitOnFlagUntilTimeout+0x58>)
 8002a20:	681a      	ldr	r2, [r3, #0]
 8002a22:	2003      	movs	r0, #3
 8002a24:	400a      	ands	r2, r1
 8002a26:	601a      	str	r2, [r3, #0]
 8002a28:	689a      	ldr	r2, [r3, #8]
 8002a2a:	31a3      	adds	r1, #163	; 0xa3
 8002a2c:	31ff      	adds	r1, #255	; 0xff
 8002a2e:	438a      	bics	r2, r1
 8002a30:	609a      	str	r2, [r3, #8]
 8002a32:	2320      	movs	r3, #32
 8002a34:	6763      	str	r3, [r4, #116]	; 0x74
 8002a36:	67a3      	str	r3, [r4, #120]	; 0x78
 8002a38:	2300      	movs	r3, #0
 8002a3a:	3470      	adds	r4, #112	; 0x70
 8002a3c:	7023      	strb	r3, [r4, #0]
 8002a3e:	bdf8      	pop	{r3, r4, r5, r6, r7, pc}
 8002a40:	fffffe5f 	.word	0xfffffe5f

08002a44 <UART_CheckIdleState>:
 8002a44:	b573      	push	{r0, r1, r4, r5, r6, lr}
 8002a46:	2600      	movs	r6, #0
 8002a48:	0004      	movs	r4, r0
 8002a4a:	67c6      	str	r6, [r0, #124]	; 0x7c
 8002a4c:	f7fe fce8 	bl	8001420 <HAL_GetTick>
 8002a50:	6823      	ldr	r3, [r4, #0]
 8002a52:	0005      	movs	r5, r0
 8002a54:	681b      	ldr	r3, [r3, #0]
 8002a56:	071b      	lsls	r3, r3, #28
 8002a58:	d415      	bmi.n	8002a86 <UART_CheckIdleState+0x42>
 8002a5a:	6823      	ldr	r3, [r4, #0]
 8002a5c:	681b      	ldr	r3, [r3, #0]
 8002a5e:	075b      	lsls	r3, r3, #29
 8002a60:	d50a      	bpl.n	8002a78 <UART_CheckIdleState+0x34>
 8002a62:	2180      	movs	r1, #128	; 0x80
 8002a64:	4b0e      	ldr	r3, [pc, #56]	; (8002aa0 <UART_CheckIdleState+0x5c>)
 8002a66:	2200      	movs	r2, #0
 8002a68:	9300      	str	r3, [sp, #0]
 8002a6a:	03c9      	lsls	r1, r1, #15
 8002a6c:	002b      	movs	r3, r5
 8002a6e:	0020      	movs	r0, r4
 8002a70:	f7ff ffba 	bl	80029e8 <UART_WaitOnFlagUntilTimeout>
 8002a74:	2800      	cmp	r0, #0
 8002a76:	d111      	bne.n	8002a9c <UART_CheckIdleState+0x58>
 8002a78:	2320      	movs	r3, #32
 8002a7a:	2000      	movs	r0, #0
 8002a7c:	6763      	str	r3, [r4, #116]	; 0x74
 8002a7e:	67a3      	str	r3, [r4, #120]	; 0x78
 8002a80:	3470      	adds	r4, #112	; 0x70
 8002a82:	7020      	strb	r0, [r4, #0]
 8002a84:	e00b      	b.n	8002a9e <UART_CheckIdleState+0x5a>
 8002a86:	2180      	movs	r1, #128	; 0x80
 8002a88:	4b05      	ldr	r3, [pc, #20]	; (8002aa0 <UART_CheckIdleState+0x5c>)
 8002a8a:	0032      	movs	r2, r6
 8002a8c:	9300      	str	r3, [sp, #0]
 8002a8e:	0389      	lsls	r1, r1, #14
 8002a90:	0003      	movs	r3, r0
 8002a92:	0020      	movs	r0, r4
 8002a94:	f7ff ffa8 	bl	80029e8 <UART_WaitOnFlagUntilTimeout>
 8002a98:	2800      	cmp	r0, #0
 8002a9a:	d0de      	beq.n	8002a5a <UART_CheckIdleState+0x16>
 8002a9c:	2003      	movs	r0, #3
 8002a9e:	bd76      	pop	{r1, r2, r4, r5, r6, pc}
 8002aa0:	01ffffff 	.word	0x01ffffff

08002aa4 <HAL_UART_Init>:
 8002aa4:	b510      	push	{r4, lr}
 8002aa6:	1e04      	subs	r4, r0, #0
 8002aa8:	d101      	bne.n	8002aae <HAL_UART_Init+0xa>
 8002aaa:	2001      	movs	r0, #1
 8002aac:	bd10      	pop	{r4, pc}
 8002aae:	6f43      	ldr	r3, [r0, #116]	; 0x74
 8002ab0:	2b00      	cmp	r3, #0
 8002ab2:	d104      	bne.n	8002abe <HAL_UART_Init+0x1a>
 8002ab4:	0002      	movs	r2, r0
 8002ab6:	3270      	adds	r2, #112	; 0x70
 8002ab8:	7013      	strb	r3, [r2, #0]
 8002aba:	f7fe fb4f 	bl	800115c <HAL_UART_MspInit>
 8002abe:	2324      	movs	r3, #36	; 0x24
 8002ac0:	2101      	movs	r1, #1
 8002ac2:	6822      	ldr	r2, [r4, #0]
 8002ac4:	6763      	str	r3, [r4, #116]	; 0x74
 8002ac6:	6813      	ldr	r3, [r2, #0]
 8002ac8:	0020      	movs	r0, r4
 8002aca:	438b      	bics	r3, r1
 8002acc:	6013      	str	r3, [r2, #0]
 8002ace:	f7ff fe01 	bl	80026d4 <UART_SetConfig>
 8002ad2:	2801      	cmp	r0, #1
 8002ad4:	d0e9      	beq.n	8002aaa <HAL_UART_Init+0x6>
 8002ad6:	6a63      	ldr	r3, [r4, #36]	; 0x24
 8002ad8:	2b00      	cmp	r3, #0
 8002ada:	d002      	beq.n	8002ae2 <HAL_UART_Init+0x3e>
 8002adc:	0020      	movs	r0, r4
 8002ade:	f7ff ff1b 	bl	8002918 <UART_AdvFeatureConfig>
 8002ae2:	6823      	ldr	r3, [r4, #0]
 8002ae4:	4907      	ldr	r1, [pc, #28]	; (8002b04 <HAL_UART_Init+0x60>)
 8002ae6:	685a      	ldr	r2, [r3, #4]
 8002ae8:	0020      	movs	r0, r4
 8002aea:	400a      	ands	r2, r1
 8002aec:	212a      	movs	r1, #42	; 0x2a
 8002aee:	605a      	str	r2, [r3, #4]
 8002af0:	689a      	ldr	r2, [r3, #8]
 8002af2:	438a      	bics	r2, r1
 8002af4:	609a      	str	r2, [r3, #8]
 8002af6:	2201      	movs	r2, #1
 8002af8:	6819      	ldr	r1, [r3, #0]
 8002afa:	430a      	orrs	r2, r1
 8002afc:	601a      	str	r2, [r3, #0]
 8002afe:	f7ff ffa1 	bl	8002a44 <UART_CheckIdleState>
 8002b02:	e7d3      	b.n	8002aac <HAL_UART_Init+0x8>
 8002b04:	ffffb7ff 	.word	0xffffb7ff

08002b08 <osKernelStart>:
 8002b08:	b510      	push	{r4, lr}
 8002b0a:	f000 fa07 	bl	8002f1c <vTaskStartScheduler>
 8002b0e:	2000      	movs	r0, #0
 8002b10:	bd10      	pop	{r4, pc}

08002b12 <osThreadCreate>:
 8002b12:	b5f0      	push	{r4, r5, r6, r7, lr}
 8002b14:	0004      	movs	r4, r0
 8002b16:	6946      	ldr	r6, [r0, #20]
 8002b18:	000b      	movs	r3, r1
 8002b1a:	b087      	sub	sp, #28
 8002b1c:	6840      	ldr	r0, [r0, #4]
 8002b1e:	6821      	ldr	r1, [r4, #0]
 8002b20:	6922      	ldr	r2, [r4, #16]
 8002b22:	2708      	movs	r7, #8
 8002b24:	5fe5      	ldrsh	r5, [r4, r7]
 8002b26:	2e00      	cmp	r6, #0
 8002b28:	d00e      	beq.n	8002b48 <osThreadCreate+0x36>
 8002b2a:	69a7      	ldr	r7, [r4, #24]
 8002b2c:	2f00      	cmp	r7, #0
 8002b2e:	d00b      	beq.n	8002b48 <osThreadCreate+0x36>
 8002b30:	2400      	movs	r4, #0
 8002b32:	2d84      	cmp	r5, #132	; 0x84
 8002b34:	d000      	beq.n	8002b38 <osThreadCreate+0x26>
 8002b36:	1cec      	adds	r4, r5, #3
 8002b38:	9702      	str	r7, [sp, #8]
 8002b3a:	9601      	str	r6, [sp, #4]
 8002b3c:	9400      	str	r4, [sp, #0]
 8002b3e:	f000 f99b 	bl	8002e78 <xTaskCreateStatic>
 8002b42:	9005      	str	r0, [sp, #20]
 8002b44:	9b05      	ldr	r3, [sp, #20]
 8002b46:	e00c      	b.n	8002b62 <osThreadCreate+0x50>
 8002b48:	b292      	uxth	r2, r2
 8002b4a:	2400      	movs	r4, #0
 8002b4c:	2d84      	cmp	r5, #132	; 0x84
 8002b4e:	d000      	beq.n	8002b52 <osThreadCreate+0x40>
 8002b50:	1cec      	adds	r4, r5, #3
 8002b52:	ad05      	add	r5, sp, #20
 8002b54:	9501      	str	r5, [sp, #4]
 8002b56:	9400      	str	r4, [sp, #0]
 8002b58:	f000 f9b3 	bl	8002ec2 <xTaskCreate>
 8002b5c:	2300      	movs	r3, #0
 8002b5e:	2801      	cmp	r0, #1
 8002b60:	d0f0      	beq.n	8002b44 <osThreadCreate+0x32>
 8002b62:	0018      	movs	r0, r3
 8002b64:	b007      	add	sp, #28
 8002b66:	bdf0      	pop	{r4, r5, r6, r7, pc}

08002b68 <osDelay>:
 8002b68:	b510      	push	{r4, lr}
 8002b6a:	2800      	cmp	r0, #0
 8002b6c:	d100      	bne.n	8002b70 <osDelay+0x8>
 8002b6e:	3001      	adds	r0, #1
 8002b70:	f000 faf2 	bl	8003158 <vTaskDelay>
 8002b74:	2000      	movs	r0, #0
 8002b76:	bd10      	pop	{r4, pc}

08002b78 <vListInitialise>:
 8002b78:	0003      	movs	r3, r0
 8002b7a:	2201      	movs	r2, #1
 8002b7c:	3308      	adds	r3, #8
 8002b7e:	6043      	str	r3, [r0, #4]
 8002b80:	60c3      	str	r3, [r0, #12]
 8002b82:	6103      	str	r3, [r0, #16]
 8002b84:	2300      	movs	r3, #0
 8002b86:	4252      	negs	r2, r2
 8002b88:	6082      	str	r2, [r0, #8]
 8002b8a:	6003      	str	r3, [r0, #0]
 8002b8c:	4770      	bx	lr

08002b8e <vListInitialiseItem>:
 8002b8e:	2300      	movs	r3, #0
 8002b90:	6103      	str	r3, [r0, #16]
 8002b92:	4770      	bx	lr

08002b94 <vListInsertEnd>:
 8002b94:	6843      	ldr	r3, [r0, #4]
 8002b96:	689a      	ldr	r2, [r3, #8]
 8002b98:	604b      	str	r3, [r1, #4]
 8002b9a:	608a      	str	r2, [r1, #8]
 8002b9c:	689a      	ldr	r2, [r3, #8]
 8002b9e:	6051      	str	r1, [r2, #4]
 8002ba0:	6099      	str	r1, [r3, #8]
 8002ba2:	6803      	ldr	r3, [r0, #0]
 8002ba4:	6108      	str	r0, [r1, #16]
 8002ba6:	3301      	adds	r3, #1
 8002ba8:	6003      	str	r3, [r0, #0]
 8002baa:	4770      	bx	lr

08002bac <vListInsert>:
 8002bac:	0003      	movs	r3, r0
 8002bae:	680a      	ldr	r2, [r1, #0]
 8002bb0:	b530      	push	{r4, r5, lr}
 8002bb2:	3308      	adds	r3, #8
 8002bb4:	1c54      	adds	r4, r2, #1
 8002bb6:	d10b      	bne.n	8002bd0 <vListInsert+0x24>
 8002bb8:	6903      	ldr	r3, [r0, #16]
 8002bba:	685a      	ldr	r2, [r3, #4]
 8002bbc:	604a      	str	r2, [r1, #4]
 8002bbe:	6091      	str	r1, [r2, #8]
 8002bc0:	608b      	str	r3, [r1, #8]
 8002bc2:	6059      	str	r1, [r3, #4]
 8002bc4:	6803      	ldr	r3, [r0, #0]
 8002bc6:	6108      	str	r0, [r1, #16]
 8002bc8:	3301      	adds	r3, #1
 8002bca:	6003      	str	r3, [r0, #0]
 8002bcc:	bd30      	pop	{r4, r5, pc}
 8002bce:	0023      	movs	r3, r4
 8002bd0:	685c      	ldr	r4, [r3, #4]
 8002bd2:	6825      	ldr	r5, [r4, #0]
 8002bd4:	4295      	cmp	r5, r2
 8002bd6:	d9fa      	bls.n	8002bce <vListInsert+0x22>
 8002bd8:	e7ef      	b.n	8002bba <vListInsert+0xe>

08002bda <uxListRemove>:
 8002bda:	6841      	ldr	r1, [r0, #4]
 8002bdc:	6882      	ldr	r2, [r0, #8]
 8002bde:	6903      	ldr	r3, [r0, #16]
 8002be0:	608a      	str	r2, [r1, #8]
 8002be2:	6882      	ldr	r2, [r0, #8]
 8002be4:	6051      	str	r1, [r2, #4]
 8002be6:	6859      	ldr	r1, [r3, #4]
 8002be8:	4281      	cmp	r1, r0
 8002bea:	d100      	bne.n	8002bee <uxListRemove+0x14>
 8002bec:	605a      	str	r2, [r3, #4]
 8002bee:	2200      	movs	r2, #0
 8002bf0:	6102      	str	r2, [r0, #16]
 8002bf2:	681a      	ldr	r2, [r3, #0]
 8002bf4:	3a01      	subs	r2, #1
 8002bf6:	601a      	str	r2, [r3, #0]
 8002bf8:	6818      	ldr	r0, [r3, #0]
 8002bfa:	4770      	bx	lr

08002bfc <prvAddNewTaskToReadyList>:
 8002bfc:	b5f8      	push	{r3, r4, r5, r6, r7, lr}
 8002bfe:	0004      	movs	r4, r0
 8002c00:	f000 fb78 	bl	80032f4 <vPortEnterCritical>
 8002c04:	4b2a      	ldr	r3, [pc, #168]	; (8002cb0 <prvAddNewTaskToReadyList+0xb4>)
 8002c06:	4d2b      	ldr	r5, [pc, #172]	; (8002cb4 <prvAddNewTaskToReadyList+0xb8>)
 8002c08:	681a      	ldr	r2, [r3, #0]
 8002c0a:	3201      	adds	r2, #1
 8002c0c:	601a      	str	r2, [r3, #0]
 8002c0e:	682e      	ldr	r6, [r5, #0]
 8002c10:	2e00      	cmp	r6, #0
 8002c12:	d141      	bne.n	8002c98 <prvAddNewTaskToReadyList+0x9c>
 8002c14:	602c      	str	r4, [r5, #0]
 8002c16:	681b      	ldr	r3, [r3, #0]
 8002c18:	2b01      	cmp	r3, #1
 8002c1a:	d11e      	bne.n	8002c5a <prvAddNewTaskToReadyList+0x5e>
 8002c1c:	2714      	movs	r7, #20
 8002c1e:	0038      	movs	r0, r7
 8002c20:	4370      	muls	r0, r6
 8002c22:	4b25      	ldr	r3, [pc, #148]	; (8002cb8 <prvAddNewTaskToReadyList+0xbc>)
 8002c24:	3601      	adds	r6, #1
 8002c26:	1818      	adds	r0, r3, r0
 8002c28:	f7ff ffa6 	bl	8002b78 <vListInitialise>
 8002c2c:	2e07      	cmp	r6, #7
 8002c2e:	d1f6      	bne.n	8002c1e <prvAddNewTaskToReadyList+0x22>
 8002c30:	4f22      	ldr	r7, [pc, #136]	; (8002cbc <prvAddNewTaskToReadyList+0xc0>)
 8002c32:	0038      	movs	r0, r7
 8002c34:	f7ff ffa0 	bl	8002b78 <vListInitialise>
 8002c38:	4e21      	ldr	r6, [pc, #132]	; (8002cc0 <prvAddNewTaskToReadyList+0xc4>)
 8002c3a:	0030      	movs	r0, r6
 8002c3c:	f7ff ff9c 	bl	8002b78 <vListInitialise>
 8002c40:	4820      	ldr	r0, [pc, #128]	; (8002cc4 <prvAddNewTaskToReadyList+0xc8>)
 8002c42:	f7ff ff99 	bl	8002b78 <vListInitialise>
 8002c46:	4820      	ldr	r0, [pc, #128]	; (8002cc8 <prvAddNewTaskToReadyList+0xcc>)
 8002c48:	f7ff ff96 	bl	8002b78 <vListInitialise>
 8002c4c:	481f      	ldr	r0, [pc, #124]	; (8002ccc <prvAddNewTaskToReadyList+0xd0>)
 8002c4e:	f7ff ff93 	bl	8002b78 <vListInitialise>
 8002c52:	4b1f      	ldr	r3, [pc, #124]	; (8002cd0 <prvAddNewTaskToReadyList+0xd4>)
 8002c54:	601f      	str	r7, [r3, #0]
 8002c56:	4b1f      	ldr	r3, [pc, #124]	; (8002cd4 <prvAddNewTaskToReadyList+0xd8>)
 8002c58:	601e      	str	r6, [r3, #0]
 8002c5a:	4a1f      	ldr	r2, [pc, #124]	; (8002cd8 <prvAddNewTaskToReadyList+0xdc>)
 8002c5c:	6813      	ldr	r3, [r2, #0]
 8002c5e:	3301      	adds	r3, #1
 8002c60:	6013      	str	r3, [r2, #0]
 8002c62:	4a1e      	ldr	r2, [pc, #120]	; (8002cdc <prvAddNewTaskToReadyList+0xe0>)
 8002c64:	6ae3      	ldr	r3, [r4, #44]	; 0x2c
 8002c66:	6811      	ldr	r1, [r2, #0]
 8002c68:	428b      	cmp	r3, r1
 8002c6a:	d900      	bls.n	8002c6e <prvAddNewTaskToReadyList+0x72>
 8002c6c:	6013      	str	r3, [r2, #0]
 8002c6e:	2014      	movs	r0, #20
 8002c70:	4358      	muls	r0, r3
 8002c72:	4b11      	ldr	r3, [pc, #68]	; (8002cb8 <prvAddNewTaskToReadyList+0xbc>)
 8002c74:	1d21      	adds	r1, r4, #4
 8002c76:	1818      	adds	r0, r3, r0
 8002c78:	f7ff ff8c 	bl	8002b94 <vListInsertEnd>
 8002c7c:	f000 fb46 	bl	800330c <vPortExitCritical>
 8002c80:	4b17      	ldr	r3, [pc, #92]	; (8002ce0 <prvAddNewTaskToReadyList+0xe4>)
 8002c82:	681b      	ldr	r3, [r3, #0]
 8002c84:	2b00      	cmp	r3, #0
 8002c86:	d006      	beq.n	8002c96 <prvAddNewTaskToReadyList+0x9a>
 8002c88:	682b      	ldr	r3, [r5, #0]
 8002c8a:	6ada      	ldr	r2, [r3, #44]	; 0x2c
 8002c8c:	6ae3      	ldr	r3, [r4, #44]	; 0x2c
 8002c8e:	429a      	cmp	r2, r3
 8002c90:	d201      	bcs.n	8002c96 <prvAddNewTaskToReadyList+0x9a>
 8002c92:	f000 fb23 	bl	80032dc <vPortYield>
 8002c96:	bdf8      	pop	{r3, r4, r5, r6, r7, pc}
 8002c98:	4b11      	ldr	r3, [pc, #68]	; (8002ce0 <prvAddNewTaskToReadyList+0xe4>)
 8002c9a:	681b      	ldr	r3, [r3, #0]
 8002c9c:	2b00      	cmp	r3, #0
 8002c9e:	d1dc      	bne.n	8002c5a <prvAddNewTaskToReadyList+0x5e>
 8002ca0:	682b      	ldr	r3, [r5, #0]
 8002ca2:	6ae2      	ldr	r2, [r4, #44]	; 0x2c
 8002ca4:	6adb      	ldr	r3, [r3, #44]	; 0x2c
 8002ca6:	4293      	cmp	r3, r2
 8002ca8:	d8d7      	bhi.n	8002c5a <prvAddNewTaskToReadyList+0x5e>
 8002caa:	602c      	str	r4, [r5, #0]
 8002cac:	e7d5      	b.n	8002c5a <prvAddNewTaskToReadyList+0x5e>
 8002cae:	46c0      	nop			; (mov r8, r8)
 8002cb0:	2000061c 	.word	0x2000061c
 8002cb4:	20000584 	.word	0x20000584
 8002cb8:	20000590 	.word	0x20000590
 8002cbc:	20000634 	.word	0x20000634
 8002cc0:	20000648 	.word	0x20000648
 8002cc4:	20000664 	.word	0x20000664
 8002cc8:	20000690 	.word	0x20000690
 8002ccc:	2000067c 	.word	0x2000067c
 8002cd0:	20000588 	.word	0x20000588
 8002cd4:	2000058c 	.word	0x2000058c
 8002cd8:	2000062c 	.word	0x2000062c
 8002cdc:	20000630 	.word	0x20000630
 8002ce0:	20000678 	.word	0x20000678

08002ce4 <prvDeleteTCB>:
 8002ce4:	0003      	movs	r3, r0
 8002ce6:	b510      	push	{r4, lr}
 8002ce8:	3351      	adds	r3, #81	; 0x51
 8002cea:	781b      	ldrb	r3, [r3, #0]
 8002cec:	0004      	movs	r4, r0
 8002cee:	2b00      	cmp	r3, #0
 8002cf0:	d106      	bne.n	8002d00 <prvDeleteTCB+0x1c>
 8002cf2:	6b00      	ldr	r0, [r0, #48]	; 0x30
 8002cf4:	f000 fbfc 	bl	80034f0 <vPortFree>
 8002cf8:	0020      	movs	r0, r4
 8002cfa:	f000 fbf9 	bl	80034f0 <vPortFree>
 8002cfe:	bd10      	pop	{r4, pc}
 8002d00:	2b01      	cmp	r3, #1
 8002d02:	d0f9      	beq.n	8002cf8 <prvDeleteTCB+0x14>
 8002d04:	2b02      	cmp	r3, #2
 8002d06:	d0fa      	beq.n	8002cfe <prvDeleteTCB+0x1a>
 8002d08:	b672      	cpsid	i
 8002d0a:	e7fe      	b.n	8002d0a <prvDeleteTCB+0x26>

08002d0c <prvIdleTask>:
 8002d0c:	b570      	push	{r4, r5, r6, lr}
 8002d0e:	4c10      	ldr	r4, [pc, #64]	; (8002d50 <prvIdleTask+0x44>)
 8002d10:	6823      	ldr	r3, [r4, #0]
 8002d12:	2b00      	cmp	r3, #0
 8002d14:	d106      	bne.n	8002d24 <prvIdleTask+0x18>
 8002d16:	4b0f      	ldr	r3, [pc, #60]	; (8002d54 <prvIdleTask+0x48>)
 8002d18:	681b      	ldr	r3, [r3, #0]
 8002d1a:	2b01      	cmp	r3, #1
 8002d1c:	d9f7      	bls.n	8002d0e <prvIdleTask+0x2>
 8002d1e:	f000 fadd 	bl	80032dc <vPortYield>
 8002d22:	e7f4      	b.n	8002d0e <prvIdleTask+0x2>
 8002d24:	f000 fae6 	bl	80032f4 <vPortEnterCritical>
 8002d28:	4b0b      	ldr	r3, [pc, #44]	; (8002d58 <prvIdleTask+0x4c>)
 8002d2a:	68db      	ldr	r3, [r3, #12]
 8002d2c:	68dd      	ldr	r5, [r3, #12]
 8002d2e:	1d28      	adds	r0, r5, #4
 8002d30:	f7ff ff53 	bl	8002bda <uxListRemove>
 8002d34:	4a09      	ldr	r2, [pc, #36]	; (8002d5c <prvIdleTask+0x50>)
 8002d36:	6813      	ldr	r3, [r2, #0]
 8002d38:	3b01      	subs	r3, #1
 8002d3a:	6013      	str	r3, [r2, #0]
 8002d3c:	6823      	ldr	r3, [r4, #0]
 8002d3e:	3b01      	subs	r3, #1
 8002d40:	6023      	str	r3, [r4, #0]
 8002d42:	f000 fae3 	bl	800330c <vPortExitCritical>
 8002d46:	0028      	movs	r0, r5
 8002d48:	f7ff ffcc 	bl	8002ce4 <prvDeleteTCB>
 8002d4c:	e7df      	b.n	8002d0e <prvIdleTask+0x2>
 8002d4e:	46c0      	nop			; (mov r8, r8)
 8002d50:	20000620 	.word	0x20000620
 8002d54:	20000590 	.word	0x20000590
 8002d58:	20000690 	.word	0x20000690
 8002d5c:	2000061c 	.word	0x2000061c

08002d60 <prvResetNextTaskUnblockTime>:
 8002d60:	4a07      	ldr	r2, [pc, #28]	; (8002d80 <prvResetNextTaskUnblockTime+0x20>)
 8002d62:	6813      	ldr	r3, [r2, #0]
 8002d64:	6819      	ldr	r1, [r3, #0]
 8002d66:	4b07      	ldr	r3, [pc, #28]	; (8002d84 <prvResetNextTaskUnblockTime+0x24>)
 8002d68:	2900      	cmp	r1, #0
 8002d6a:	d103      	bne.n	8002d74 <prvResetNextTaskUnblockTime+0x14>
 8002d6c:	2201      	movs	r2, #1
 8002d6e:	4252      	negs	r2, r2
 8002d70:	601a      	str	r2, [r3, #0]
 8002d72:	4770      	bx	lr
 8002d74:	6812      	ldr	r2, [r2, #0]
 8002d76:	68d2      	ldr	r2, [r2, #12]
 8002d78:	68d2      	ldr	r2, [r2, #12]
 8002d7a:	6852      	ldr	r2, [r2, #4]
 8002d7c:	e7f8      	b.n	8002d70 <prvResetNextTaskUnblockTime+0x10>
 8002d7e:	46c0      	nop			; (mov r8, r8)
 8002d80:	20000588 	.word	0x20000588
 8002d84:	2000065c 	.word	0x2000065c

08002d88 <prvInitialiseNewTask.isra.2>:
 8002d88:	b5f7      	push	{r0, r1, r2, r4, r5, r6, r7, lr}
 8002d8a:	9c0a      	ldr	r4, [sp, #40]	; 0x28
 8002d8c:	9301      	str	r3, [sp, #4]
 8002d8e:	4b1d      	ldr	r3, [pc, #116]	; (8002e04 <prvInitialiseNewTask.isra.2+0x7c>)
 8002d90:	9000      	str	r0, [sp, #0]
 8002d92:	18d2      	adds	r2, r2, r3
 8002d94:	6b23      	ldr	r3, [r4, #48]	; 0x30
 8002d96:	0092      	lsls	r2, r2, #2
 8002d98:	189a      	adds	r2, r3, r2
 8002d9a:	2307      	movs	r3, #7
 8002d9c:	439a      	bics	r2, r3
 8002d9e:	0017      	movs	r7, r2
 8002da0:	2300      	movs	r3, #0
 8002da2:	001a      	movs	r2, r3
 8002da4:	5cc8      	ldrb	r0, [r1, r3]
 8002da6:	3234      	adds	r2, #52	; 0x34
 8002da8:	54a0      	strb	r0, [r4, r2]
 8002daa:	5cca      	ldrb	r2, [r1, r3]
 8002dac:	2a00      	cmp	r2, #0
 8002dae:	d002      	beq.n	8002db6 <prvInitialiseNewTask.isra.2+0x2e>
 8002db0:	3301      	adds	r3, #1
 8002db2:	2b10      	cmp	r3, #16
 8002db4:	d1f5      	bne.n	8002da2 <prvInitialiseNewTask.isra.2+0x1a>
 8002db6:	0023      	movs	r3, r4
 8002db8:	2500      	movs	r5, #0
 8002dba:	9e08      	ldr	r6, [sp, #32]
 8002dbc:	3343      	adds	r3, #67	; 0x43
 8002dbe:	701d      	strb	r5, [r3, #0]
 8002dc0:	2e06      	cmp	r6, #6
 8002dc2:	d900      	bls.n	8002dc6 <prvInitialiseNewTask.isra.2+0x3e>
 8002dc4:	2606      	movs	r6, #6
 8002dc6:	62e6      	str	r6, [r4, #44]	; 0x2c
 8002dc8:	6466      	str	r6, [r4, #68]	; 0x44
 8002dca:	1d20      	adds	r0, r4, #4
 8002dcc:	64a5      	str	r5, [r4, #72]	; 0x48
 8002dce:	f7ff fede 	bl	8002b8e <vListInitialiseItem>
 8002dd2:	0020      	movs	r0, r4
 8002dd4:	3018      	adds	r0, #24
 8002dd6:	f7ff feda 	bl	8002b8e <vListInitialiseItem>
 8002dda:	2307      	movs	r3, #7
 8002ddc:	1b9e      	subs	r6, r3, r6
 8002dde:	0023      	movs	r3, r4
 8002de0:	3350      	adds	r3, #80	; 0x50
 8002de2:	6124      	str	r4, [r4, #16]
 8002de4:	61a6      	str	r6, [r4, #24]
 8002de6:	6264      	str	r4, [r4, #36]	; 0x24
 8002de8:	64e5      	str	r5, [r4, #76]	; 0x4c
 8002dea:	9a01      	ldr	r2, [sp, #4]
 8002dec:	701d      	strb	r5, [r3, #0]
 8002dee:	9900      	ldr	r1, [sp, #0]
 8002df0:	0038      	movs	r0, r7
 8002df2:	f000 fa2f 	bl	8003254 <pxPortInitialiseStack>
 8002df6:	9b09      	ldr	r3, [sp, #36]	; 0x24
 8002df8:	6020      	str	r0, [r4, #0]
 8002dfa:	2b00      	cmp	r3, #0
 8002dfc:	d000      	beq.n	8002e00 <prvInitialiseNewTask.isra.2+0x78>
 8002dfe:	601c      	str	r4, [r3, #0]
 8002e00:	bdf7      	pop	{r0, r1, r2, r4, r5, r6, r7, pc}
 8002e02:	46c0      	nop			; (mov r8, r8)
 8002e04:	3fffffff 	.word	0x3fffffff

08002e08 <prvAddCurrentTaskToDelayedList>:
 8002e08:	b5f8      	push	{r3, r4, r5, r6, r7, lr}
 8002e0a:	0004      	movs	r4, r0
 8002e0c:	4b14      	ldr	r3, [pc, #80]	; (8002e60 <prvAddCurrentTaskToDelayedList+0x58>)
 8002e0e:	4d15      	ldr	r5, [pc, #84]	; (8002e64 <prvAddCurrentTaskToDelayedList+0x5c>)
 8002e10:	681e      	ldr	r6, [r3, #0]
 8002e12:	6828      	ldr	r0, [r5, #0]
 8002e14:	000f      	movs	r7, r1
 8002e16:	3004      	adds	r0, #4
 8002e18:	f7ff fedf 	bl	8002bda <uxListRemove>
 8002e1c:	1c63      	adds	r3, r4, #1
 8002e1e:	d107      	bne.n	8002e30 <prvAddCurrentTaskToDelayedList+0x28>
 8002e20:	2f00      	cmp	r7, #0
 8002e22:	d005      	beq.n	8002e30 <prvAddCurrentTaskToDelayedList+0x28>
 8002e24:	6829      	ldr	r1, [r5, #0]
 8002e26:	4810      	ldr	r0, [pc, #64]	; (8002e68 <prvAddCurrentTaskToDelayedList+0x60>)
 8002e28:	3104      	adds	r1, #4
 8002e2a:	f7ff feb3 	bl	8002b94 <vListInsertEnd>
 8002e2e:	bdf8      	pop	{r3, r4, r5, r6, r7, pc}
 8002e30:	682b      	ldr	r3, [r5, #0]
 8002e32:	1934      	adds	r4, r6, r4
 8002e34:	605c      	str	r4, [r3, #4]
 8002e36:	42a6      	cmp	r6, r4
 8002e38:	d906      	bls.n	8002e48 <prvAddCurrentTaskToDelayedList+0x40>
 8002e3a:	4b0c      	ldr	r3, [pc, #48]	; (8002e6c <prvAddCurrentTaskToDelayedList+0x64>)
 8002e3c:	6818      	ldr	r0, [r3, #0]
 8002e3e:	6829      	ldr	r1, [r5, #0]
 8002e40:	3104      	adds	r1, #4
 8002e42:	f7ff feb3 	bl	8002bac <vListInsert>
 8002e46:	e7f2      	b.n	8002e2e <prvAddCurrentTaskToDelayedList+0x26>
 8002e48:	4b09      	ldr	r3, [pc, #36]	; (8002e70 <prvAddCurrentTaskToDelayedList+0x68>)
 8002e4a:	6818      	ldr	r0, [r3, #0]
 8002e4c:	6829      	ldr	r1, [r5, #0]
 8002e4e:	3104      	adds	r1, #4
 8002e50:	f7ff feac 	bl	8002bac <vListInsert>
 8002e54:	4b07      	ldr	r3, [pc, #28]	; (8002e74 <prvAddCurrentTaskToDelayedList+0x6c>)
 8002e56:	681a      	ldr	r2, [r3, #0]
 8002e58:	42a2      	cmp	r2, r4
 8002e5a:	d9e8      	bls.n	8002e2e <prvAddCurrentTaskToDelayedList+0x26>
 8002e5c:	601c      	str	r4, [r3, #0]
 8002e5e:	e7e6      	b.n	8002e2e <prvAddCurrentTaskToDelayedList+0x26>
 8002e60:	200006a4 	.word	0x200006a4
 8002e64:	20000584 	.word	0x20000584
 8002e68:	2000067c 	.word	0x2000067c
 8002e6c:	2000058c 	.word	0x2000058c
 8002e70:	20000588 	.word	0x20000588
 8002e74:	2000065c 	.word	0x2000065c

08002e78 <xTaskCreateStatic>:
 8002e78:	b570      	push	{r4, r5, r6, lr}
 8002e7a:	b086      	sub	sp, #24
 8002e7c:	9d0b      	ldr	r5, [sp, #44]	; 0x2c
 8002e7e:	9c0c      	ldr	r4, [sp, #48]	; 0x30
 8002e80:	2d00      	cmp	r5, #0
 8002e82:	d101      	bne.n	8002e88 <xTaskCreateStatic+0x10>
 8002e84:	b672      	cpsid	i
 8002e86:	e7fe      	b.n	8002e86 <xTaskCreateStatic+0xe>
 8002e88:	2c00      	cmp	r4, #0
 8002e8a:	d101      	bne.n	8002e90 <xTaskCreateStatic+0x18>
 8002e8c:	b672      	cpsid	i
 8002e8e:	e7fe      	b.n	8002e8e <xTaskCreateStatic+0x16>
 8002e90:	2654      	movs	r6, #84	; 0x54
 8002e92:	9604      	str	r6, [sp, #16]
 8002e94:	9e04      	ldr	r6, [sp, #16]
 8002e96:	2e54      	cmp	r6, #84	; 0x54
 8002e98:	d001      	beq.n	8002e9e <xTaskCreateStatic+0x26>
 8002e9a:	b672      	cpsid	i
 8002e9c:	e7fe      	b.n	8002e9c <xTaskCreateStatic+0x24>
 8002e9e:	6325      	str	r5, [r4, #48]	; 0x30
 8002ea0:	0025      	movs	r5, r4
 8002ea2:	2602      	movs	r6, #2
 8002ea4:	3551      	adds	r5, #81	; 0x51
 8002ea6:	702e      	strb	r6, [r5, #0]
 8002ea8:	ad05      	add	r5, sp, #20
 8002eaa:	9501      	str	r5, [sp, #4]
 8002eac:	9d0a      	ldr	r5, [sp, #40]	; 0x28
 8002eae:	9402      	str	r4, [sp, #8]
 8002eb0:	9500      	str	r5, [sp, #0]
 8002eb2:	f7ff ff69 	bl	8002d88 <prvInitialiseNewTask.isra.2>
 8002eb6:	0020      	movs	r0, r4
 8002eb8:	f7ff fea0 	bl	8002bfc <prvAddNewTaskToReadyList>
 8002ebc:	9805      	ldr	r0, [sp, #20]
 8002ebe:	b006      	add	sp, #24
 8002ec0:	bd70      	pop	{r4, r5, r6, pc}

08002ec2 <xTaskCreate>:
 8002ec2:	b5f0      	push	{r4, r5, r6, r7, lr}
 8002ec4:	0007      	movs	r7, r0
 8002ec6:	b087      	sub	sp, #28
 8002ec8:	0090      	lsls	r0, r2, #2
 8002eca:	9104      	str	r1, [sp, #16]
 8002ecc:	0016      	movs	r6, r2
 8002ece:	9305      	str	r3, [sp, #20]
 8002ed0:	f000 fa8e 	bl	80033f0 <pvPortMalloc>
 8002ed4:	1e05      	subs	r5, r0, #0
 8002ed6:	d01d      	beq.n	8002f14 <xTaskCreate+0x52>
 8002ed8:	2054      	movs	r0, #84	; 0x54
 8002eda:	f000 fa89 	bl	80033f0 <pvPortMalloc>
 8002ede:	1e04      	subs	r4, r0, #0
 8002ee0:	d015      	beq.n	8002f0e <xTaskCreate+0x4c>
 8002ee2:	0003      	movs	r3, r0
 8002ee4:	2200      	movs	r2, #0
 8002ee6:	3351      	adds	r3, #81	; 0x51
 8002ee8:	6305      	str	r5, [r0, #48]	; 0x30
 8002eea:	701a      	strb	r2, [r3, #0]
 8002eec:	9b0d      	ldr	r3, [sp, #52]	; 0x34
 8002eee:	9002      	str	r0, [sp, #8]
 8002ef0:	9301      	str	r3, [sp, #4]
 8002ef2:	9b0c      	ldr	r3, [sp, #48]	; 0x30
 8002ef4:	0032      	movs	r2, r6
 8002ef6:	9300      	str	r3, [sp, #0]
 8002ef8:	9904      	ldr	r1, [sp, #16]
 8002efa:	9b05      	ldr	r3, [sp, #20]
 8002efc:	0038      	movs	r0, r7
 8002efe:	f7ff ff43 	bl	8002d88 <prvInitialiseNewTask.isra.2>
 8002f02:	0020      	movs	r0, r4
 8002f04:	f7ff fe7a 	bl	8002bfc <prvAddNewTaskToReadyList>
 8002f08:	2001      	movs	r0, #1
 8002f0a:	b007      	add	sp, #28
 8002f0c:	bdf0      	pop	{r4, r5, r6, r7, pc}
 8002f0e:	0028      	movs	r0, r5
 8002f10:	f000 faee 	bl	80034f0 <vPortFree>
 8002f14:	2001      	movs	r0, #1
 8002f16:	4240      	negs	r0, r0
 8002f18:	e7f7      	b.n	8002f0a <xTaskCreate+0x48>
	...

08002f1c <vTaskStartScheduler>:
 8002f1c:	b510      	push	{r4, lr}
 8002f1e:	2400      	movs	r4, #0
 8002f20:	b088      	sub	sp, #32
 8002f22:	aa07      	add	r2, sp, #28
 8002f24:	a906      	add	r1, sp, #24
 8002f26:	a805      	add	r0, sp, #20
 8002f28:	9405      	str	r4, [sp, #20]
 8002f2a:	9406      	str	r4, [sp, #24]
 8002f2c:	f7fd ff10 	bl	8000d50 <vApplicationGetIdleTaskMemory>
 8002f30:	9b05      	ldr	r3, [sp, #20]
 8002f32:	9400      	str	r4, [sp, #0]
 8002f34:	9302      	str	r3, [sp, #8]
 8002f36:	9b06      	ldr	r3, [sp, #24]
 8002f38:	9a07      	ldr	r2, [sp, #28]
 8002f3a:	9301      	str	r3, [sp, #4]
 8002f3c:	490a      	ldr	r1, [pc, #40]	; (8002f68 <vTaskStartScheduler+0x4c>)
 8002f3e:	0023      	movs	r3, r4
 8002f40:	480a      	ldr	r0, [pc, #40]	; (8002f6c <vTaskStartScheduler+0x50>)
 8002f42:	f7ff ff99 	bl	8002e78 <xTaskCreateStatic>
 8002f46:	42a0      	cmp	r0, r4
 8002f48:	d00b      	beq.n	8002f62 <vTaskStartScheduler+0x46>
 8002f4a:	b672      	cpsid	i
 8002f4c:	2201      	movs	r2, #1
 8002f4e:	4b08      	ldr	r3, [pc, #32]	; (8002f70 <vTaskStartScheduler+0x54>)
 8002f50:	4252      	negs	r2, r2
 8002f52:	601a      	str	r2, [r3, #0]
 8002f54:	4b07      	ldr	r3, [pc, #28]	; (8002f74 <vTaskStartScheduler+0x58>)
 8002f56:	3202      	adds	r2, #2
 8002f58:	601a      	str	r2, [r3, #0]
 8002f5a:	4b07      	ldr	r3, [pc, #28]	; (8002f78 <vTaskStartScheduler+0x5c>)
 8002f5c:	601c      	str	r4, [r3, #0]
 8002f5e:	f000 f98b 	bl	8003278 <xPortStartScheduler>
 8002f62:	b008      	add	sp, #32
 8002f64:	bd10      	pop	{r4, pc}
 8002f66:	46c0      	nop			; (mov r8, r8)
 8002f68:	08003765 	.word	0x08003765
 8002f6c:	08002d0d 	.word	0x08002d0d
 8002f70:	2000065c 	.word	0x2000065c
 8002f74:	20000678 	.word	0x20000678
 8002f78:	200006a4 	.word	0x200006a4

08002f7c <vTaskSuspendAll>:
 8002f7c:	4a02      	ldr	r2, [pc, #8]	; (8002f88 <vTaskSuspendAll+0xc>)
 8002f7e:	6813      	ldr	r3, [r2, #0]
 8002f80:	3301      	adds	r3, #1
 8002f82:	6013      	str	r3, [r2, #0]
 8002f84:	4770      	bx	lr
 8002f86:	46c0      	nop			; (mov r8, r8)
 8002f88:	20000628 	.word	0x20000628

08002f8c <xTaskIncrementTick>:
 8002f8c:	4b33      	ldr	r3, [pc, #204]	; (800305c <xTaskIncrementTick+0xd0>)
 8002f8e:	b5f7      	push	{r0, r1, r2, r4, r5, r6, r7, lr}
 8002f90:	681b      	ldr	r3, [r3, #0]
 8002f92:	2b00      	cmp	r3, #0
 8002f94:	d15c      	bne.n	8003050 <xTaskIncrementTick+0xc4>
 8002f96:	4b32      	ldr	r3, [pc, #200]	; (8003060 <xTaskIncrementTick+0xd4>)
 8002f98:	681d      	ldr	r5, [r3, #0]
 8002f9a:	3501      	adds	r5, #1
 8002f9c:	601d      	str	r5, [r3, #0]
 8002f9e:	2d00      	cmp	r5, #0
 8002fa0:	d111      	bne.n	8002fc6 <xTaskIncrementTick+0x3a>
 8002fa2:	4b30      	ldr	r3, [pc, #192]	; (8003064 <xTaskIncrementTick+0xd8>)
 8002fa4:	681a      	ldr	r2, [r3, #0]
 8002fa6:	6812      	ldr	r2, [r2, #0]
 8002fa8:	2a00      	cmp	r2, #0
 8002faa:	d001      	beq.n	8002fb0 <xTaskIncrementTick+0x24>
 8002fac:	b672      	cpsid	i
 8002fae:	e7fe      	b.n	8002fae <xTaskIncrementTick+0x22>
 8002fb0:	4a2d      	ldr	r2, [pc, #180]	; (8003068 <xTaskIncrementTick+0xdc>)
 8002fb2:	6819      	ldr	r1, [r3, #0]
 8002fb4:	6810      	ldr	r0, [r2, #0]
 8002fb6:	6018      	str	r0, [r3, #0]
 8002fb8:	6011      	str	r1, [r2, #0]
 8002fba:	4a2c      	ldr	r2, [pc, #176]	; (800306c <xTaskIncrementTick+0xe0>)
 8002fbc:	6813      	ldr	r3, [r2, #0]
 8002fbe:	3301      	adds	r3, #1
 8002fc0:	6013      	str	r3, [r2, #0]
 8002fc2:	f7ff fecd 	bl	8002d60 <prvResetNextTaskUnblockTime>
 8002fc6:	4f2a      	ldr	r7, [pc, #168]	; (8003070 <xTaskIncrementTick+0xe4>)
 8002fc8:	2400      	movs	r4, #0
 8002fca:	683b      	ldr	r3, [r7, #0]
 8002fcc:	42ab      	cmp	r3, r5
 8002fce:	d936      	bls.n	800303e <xTaskIncrementTick+0xb2>
 8002fd0:	4b28      	ldr	r3, [pc, #160]	; (8003074 <xTaskIncrementTick+0xe8>)
 8002fd2:	681b      	ldr	r3, [r3, #0]
 8002fd4:	6ada      	ldr	r2, [r3, #44]	; 0x2c
 8002fd6:	2314      	movs	r3, #20
 8002fd8:	4353      	muls	r3, r2
 8002fda:	4a27      	ldr	r2, [pc, #156]	; (8003078 <xTaskIncrementTick+0xec>)
 8002fdc:	58d3      	ldr	r3, [r2, r3]
 8002fde:	2b01      	cmp	r3, #1
 8002fe0:	d900      	bls.n	8002fe4 <xTaskIncrementTick+0x58>
 8002fe2:	2401      	movs	r4, #1
 8002fe4:	4b25      	ldr	r3, [pc, #148]	; (800307c <xTaskIncrementTick+0xf0>)
 8002fe6:	681b      	ldr	r3, [r3, #0]
 8002fe8:	2b00      	cmp	r3, #0
 8002fea:	d000      	beq.n	8002fee <xTaskIncrementTick+0x62>
 8002fec:	2401      	movs	r4, #1
 8002fee:	0020      	movs	r0, r4
 8002ff0:	bdfe      	pop	{r1, r2, r3, r4, r5, r6, r7, pc}
 8002ff2:	681b      	ldr	r3, [r3, #0]
 8002ff4:	68db      	ldr	r3, [r3, #12]
 8002ff6:	68de      	ldr	r6, [r3, #12]
 8002ff8:	6873      	ldr	r3, [r6, #4]
 8002ffa:	429d      	cmp	r5, r3
 8002ffc:	d326      	bcc.n	800304c <xTaskIncrementTick+0xc0>
 8002ffe:	1d33      	adds	r3, r6, #4
 8003000:	0018      	movs	r0, r3
 8003002:	9301      	str	r3, [sp, #4]
 8003004:	f7ff fde9 	bl	8002bda <uxListRemove>
 8003008:	6ab3      	ldr	r3, [r6, #40]	; 0x28
 800300a:	2b00      	cmp	r3, #0
 800300c:	d003      	beq.n	8003016 <xTaskIncrementTick+0x8a>
 800300e:	0030      	movs	r0, r6
 8003010:	3018      	adds	r0, #24
 8003012:	f7ff fde2 	bl	8002bda <uxListRemove>
 8003016:	4b1a      	ldr	r3, [pc, #104]	; (8003080 <xTaskIncrementTick+0xf4>)
 8003018:	6af0      	ldr	r0, [r6, #44]	; 0x2c
 800301a:	681a      	ldr	r2, [r3, #0]
 800301c:	4290      	cmp	r0, r2
 800301e:	d900      	bls.n	8003022 <xTaskIncrementTick+0x96>
 8003020:	6018      	str	r0, [r3, #0]
 8003022:	2314      	movs	r3, #20
 8003024:	4358      	muls	r0, r3
 8003026:	4b14      	ldr	r3, [pc, #80]	; (8003078 <xTaskIncrementTick+0xec>)
 8003028:	1d31      	adds	r1, r6, #4
 800302a:	1818      	adds	r0, r3, r0
 800302c:	f7ff fdb2 	bl	8002b94 <vListInsertEnd>
 8003030:	4b10      	ldr	r3, [pc, #64]	; (8003074 <xTaskIncrementTick+0xe8>)
 8003032:	6af2      	ldr	r2, [r6, #44]	; 0x2c
 8003034:	681b      	ldr	r3, [r3, #0]
 8003036:	6adb      	ldr	r3, [r3, #44]	; 0x2c
 8003038:	429a      	cmp	r2, r3
 800303a:	d300      	bcc.n	800303e <xTaskIncrementTick+0xb2>
 800303c:	2401      	movs	r4, #1
 800303e:	4b09      	ldr	r3, [pc, #36]	; (8003064 <xTaskIncrementTick+0xd8>)
 8003040:	681a      	ldr	r2, [r3, #0]
 8003042:	6812      	ldr	r2, [r2, #0]
 8003044:	2a00      	cmp	r2, #0
 8003046:	d1d4      	bne.n	8002ff2 <xTaskIncrementTick+0x66>
 8003048:	2301      	movs	r3, #1
 800304a:	425b      	negs	r3, r3
 800304c:	603b      	str	r3, [r7, #0]
 800304e:	e7bf      	b.n	8002fd0 <xTaskIncrementTick+0x44>
 8003050:	4a0c      	ldr	r2, [pc, #48]	; (8003084 <xTaskIncrementTick+0xf8>)
 8003052:	2400      	movs	r4, #0
 8003054:	6813      	ldr	r3, [r2, #0]
 8003056:	3301      	adds	r3, #1
 8003058:	6013      	str	r3, [r2, #0]
 800305a:	e7c3      	b.n	8002fe4 <xTaskIncrementTick+0x58>
 800305c:	20000628 	.word	0x20000628
 8003060:	200006a4 	.word	0x200006a4
 8003064:	20000588 	.word	0x20000588
 8003068:	2000058c 	.word	0x2000058c
 800306c:	20000660 	.word	0x20000660
 8003070:	2000065c 	.word	0x2000065c
 8003074:	20000584 	.word	0x20000584
 8003078:	20000590 	.word	0x20000590
 800307c:	200006a8 	.word	0x200006a8
 8003080:	20000630 	.word	0x20000630
 8003084:	20000624 	.word	0x20000624

08003088 <xTaskResumeAll>:
 8003088:	b5f8      	push	{r3, r4, r5, r6, r7, lr}
 800308a:	4c2b      	ldr	r4, [pc, #172]	; (8003138 <xTaskResumeAll+0xb0>)
 800308c:	6823      	ldr	r3, [r4, #0]
 800308e:	2b00      	cmp	r3, #0
 8003090:	d101      	bne.n	8003096 <xTaskResumeAll+0xe>
 8003092:	b672      	cpsid	i
 8003094:	e7fe      	b.n	8003094 <xTaskResumeAll+0xc>
 8003096:	f000 f92d 	bl	80032f4 <vPortEnterCritical>
 800309a:	6823      	ldr	r3, [r4, #0]
 800309c:	3b01      	subs	r3, #1
 800309e:	6023      	str	r3, [r4, #0]
 80030a0:	6824      	ldr	r4, [r4, #0]
 80030a2:	2c00      	cmp	r4, #0
 80030a4:	d004      	beq.n	80030b0 <xTaskResumeAll+0x28>
 80030a6:	2400      	movs	r4, #0
 80030a8:	f000 f930 	bl	800330c <vPortExitCritical>
 80030ac:	0020      	movs	r0, r4
 80030ae:	bdf8      	pop	{r3, r4, r5, r6, r7, pc}
 80030b0:	4b22      	ldr	r3, [pc, #136]	; (800313c <xTaskResumeAll+0xb4>)
 80030b2:	681b      	ldr	r3, [r3, #0]
 80030b4:	2b00      	cmp	r3, #0
 80030b6:	d0f6      	beq.n	80030a6 <xTaskResumeAll+0x1e>
 80030b8:	2614      	movs	r6, #20
 80030ba:	2701      	movs	r7, #1
 80030bc:	4b20      	ldr	r3, [pc, #128]	; (8003140 <xTaskResumeAll+0xb8>)
 80030be:	681a      	ldr	r2, [r3, #0]
 80030c0:	2a00      	cmp	r2, #0
 80030c2:	d11a      	bne.n	80030fa <xTaskResumeAll+0x72>
 80030c4:	2c00      	cmp	r4, #0
 80030c6:	d001      	beq.n	80030cc <xTaskResumeAll+0x44>
 80030c8:	f7ff fe4a 	bl	8002d60 <prvResetNextTaskUnblockTime>
 80030cc:	4d1d      	ldr	r5, [pc, #116]	; (8003144 <xTaskResumeAll+0xbc>)
 80030ce:	682c      	ldr	r4, [r5, #0]
 80030d0:	2c00      	cmp	r4, #0
 80030d2:	d00a      	beq.n	80030ea <xTaskResumeAll+0x62>
 80030d4:	2601      	movs	r6, #1
 80030d6:	f7ff ff59 	bl	8002f8c <xTaskIncrementTick>
 80030da:	2800      	cmp	r0, #0
 80030dc:	d001      	beq.n	80030e2 <xTaskResumeAll+0x5a>
 80030de:	4b1a      	ldr	r3, [pc, #104]	; (8003148 <xTaskResumeAll+0xc0>)
 80030e0:	601e      	str	r6, [r3, #0]
 80030e2:	3c01      	subs	r4, #1
 80030e4:	2c00      	cmp	r4, #0
 80030e6:	d1f6      	bne.n	80030d6 <xTaskResumeAll+0x4e>
 80030e8:	602c      	str	r4, [r5, #0]
 80030ea:	4b17      	ldr	r3, [pc, #92]	; (8003148 <xTaskResumeAll+0xc0>)
 80030ec:	681b      	ldr	r3, [r3, #0]
 80030ee:	2b00      	cmp	r3, #0
 80030f0:	d0d9      	beq.n	80030a6 <xTaskResumeAll+0x1e>
 80030f2:	f000 f8f3 	bl	80032dc <vPortYield>
 80030f6:	2401      	movs	r4, #1
 80030f8:	e7d6      	b.n	80030a8 <xTaskResumeAll+0x20>
 80030fa:	68db      	ldr	r3, [r3, #12]
 80030fc:	68dc      	ldr	r4, [r3, #12]
 80030fe:	0020      	movs	r0, r4
 8003100:	1d25      	adds	r5, r4, #4
 8003102:	3018      	adds	r0, #24
 8003104:	f7ff fd69 	bl	8002bda <uxListRemove>
 8003108:	0028      	movs	r0, r5
 800310a:	f7ff fd66 	bl	8002bda <uxListRemove>
 800310e:	4b0f      	ldr	r3, [pc, #60]	; (800314c <xTaskResumeAll+0xc4>)
 8003110:	6ae0      	ldr	r0, [r4, #44]	; 0x2c
 8003112:	681a      	ldr	r2, [r3, #0]
 8003114:	4290      	cmp	r0, r2
 8003116:	d900      	bls.n	800311a <xTaskResumeAll+0x92>
 8003118:	6018      	str	r0, [r3, #0]
 800311a:	4370      	muls	r0, r6
 800311c:	4b0c      	ldr	r3, [pc, #48]	; (8003150 <xTaskResumeAll+0xc8>)
 800311e:	0029      	movs	r1, r5
 8003120:	18c0      	adds	r0, r0, r3
 8003122:	f7ff fd37 	bl	8002b94 <vListInsertEnd>
 8003126:	4b0b      	ldr	r3, [pc, #44]	; (8003154 <xTaskResumeAll+0xcc>)
 8003128:	6ae2      	ldr	r2, [r4, #44]	; 0x2c
 800312a:	681b      	ldr	r3, [r3, #0]
 800312c:	6adb      	ldr	r3, [r3, #44]	; 0x2c
 800312e:	429a      	cmp	r2, r3
 8003130:	d3c4      	bcc.n	80030bc <xTaskResumeAll+0x34>
 8003132:	4b05      	ldr	r3, [pc, #20]	; (8003148 <xTaskResumeAll+0xc0>)
 8003134:	601f      	str	r7, [r3, #0]
 8003136:	e7c1      	b.n	80030bc <xTaskResumeAll+0x34>
 8003138:	20000628 	.word	0x20000628
 800313c:	2000061c 	.word	0x2000061c
 8003140:	20000664 	.word	0x20000664
 8003144:	20000624 	.word	0x20000624
 8003148:	200006a8 	.word	0x200006a8
 800314c:	20000630 	.word	0x20000630
 8003150:	20000590 	.word	0x20000590
 8003154:	20000584 	.word	0x20000584

08003158 <vTaskDelay>:
 8003158:	b570      	push	{r4, r5, r6, lr}
 800315a:	1e04      	subs	r4, r0, #0
 800315c:	d102      	bne.n	8003164 <vTaskDelay+0xc>
 800315e:	f000 f8bd 	bl	80032dc <vPortYield>
 8003162:	bd70      	pop	{r4, r5, r6, pc}
 8003164:	4b08      	ldr	r3, [pc, #32]	; (8003188 <vTaskDelay+0x30>)
 8003166:	681d      	ldr	r5, [r3, #0]
 8003168:	2d00      	cmp	r5, #0
 800316a:	d001      	beq.n	8003170 <vTaskDelay+0x18>
 800316c:	b672      	cpsid	i
 800316e:	e7fe      	b.n	800316e <vTaskDelay+0x16>
 8003170:	f7ff ff04 	bl	8002f7c <vTaskSuspendAll>
 8003174:	0029      	movs	r1, r5
 8003176:	0020      	movs	r0, r4
 8003178:	f7ff fe46 	bl	8002e08 <prvAddCurrentTaskToDelayedList>
 800317c:	f7ff ff84 	bl	8003088 <xTaskResumeAll>
 8003180:	2800      	cmp	r0, #0
 8003182:	d0ec      	beq.n	800315e <vTaskDelay+0x6>
 8003184:	e7ed      	b.n	8003162 <vTaskDelay+0xa>
 8003186:	46c0      	nop			; (mov r8, r8)
 8003188:	20000628 	.word	0x20000628

0800318c <vTaskSwitchContext>:
 800318c:	4b15      	ldr	r3, [pc, #84]	; (80031e4 <vTaskSwitchContext+0x58>)
 800318e:	b530      	push	{r4, r5, lr}
 8003190:	681a      	ldr	r2, [r3, #0]
 8003192:	4b15      	ldr	r3, [pc, #84]	; (80031e8 <vTaskSwitchContext+0x5c>)
 8003194:	2a00      	cmp	r2, #0
 8003196:	d002      	beq.n	800319e <vTaskSwitchContext+0x12>
 8003198:	2201      	movs	r2, #1
 800319a:	601a      	str	r2, [r3, #0]
 800319c:	bd30      	pop	{r4, r5, pc}
 800319e:	2514      	movs	r5, #20
 80031a0:	4812      	ldr	r0, [pc, #72]	; (80031ec <vTaskSwitchContext+0x60>)
 80031a2:	601a      	str	r2, [r3, #0]
 80031a4:	6802      	ldr	r2, [r0, #0]
 80031a6:	4912      	ldr	r1, [pc, #72]	; (80031f0 <vTaskSwitchContext+0x64>)
 80031a8:	002b      	movs	r3, r5
 80031aa:	4353      	muls	r3, r2
 80031ac:	585c      	ldr	r4, [r3, r1]
 80031ae:	2c00      	cmp	r4, #0
 80031b0:	d012      	beq.n	80031d8 <vTaskSwitchContext+0x4c>
 80031b2:	18cc      	adds	r4, r1, r3
 80031b4:	6865      	ldr	r5, [r4, #4]
 80031b6:	3308      	adds	r3, #8
 80031b8:	686d      	ldr	r5, [r5, #4]
 80031ba:	185b      	adds	r3, r3, r1
 80031bc:	6065      	str	r5, [r4, #4]
 80031be:	429d      	cmp	r5, r3
 80031c0:	d101      	bne.n	80031c6 <vTaskSwitchContext+0x3a>
 80031c2:	686b      	ldr	r3, [r5, #4]
 80031c4:	6063      	str	r3, [r4, #4]
 80031c6:	2314      	movs	r3, #20
 80031c8:	4353      	muls	r3, r2
 80031ca:	18c9      	adds	r1, r1, r3
 80031cc:	684b      	ldr	r3, [r1, #4]
 80031ce:	68d9      	ldr	r1, [r3, #12]
 80031d0:	4b08      	ldr	r3, [pc, #32]	; (80031f4 <vTaskSwitchContext+0x68>)
 80031d2:	6019      	str	r1, [r3, #0]
 80031d4:	6002      	str	r2, [r0, #0]
 80031d6:	e7e1      	b.n	800319c <vTaskSwitchContext+0x10>
 80031d8:	2a00      	cmp	r2, #0
 80031da:	d101      	bne.n	80031e0 <vTaskSwitchContext+0x54>
 80031dc:	b672      	cpsid	i
 80031de:	e7fe      	b.n	80031de <vTaskSwitchContext+0x52>
 80031e0:	3a01      	subs	r2, #1
 80031e2:	e7e1      	b.n	80031a8 <vTaskSwitchContext+0x1c>
 80031e4:	20000628 	.word	0x20000628
 80031e8:	200006a8 	.word	0x200006a8
 80031ec:	20000630 	.word	0x20000630
 80031f0:	20000590 	.word	0x20000590
 80031f4:	20000584 	.word	0x20000584

080031f8 <prvTaskExitError>:
 80031f8:	2300      	movs	r3, #0
 80031fa:	b082      	sub	sp, #8
 80031fc:	9301      	str	r3, [sp, #4]
 80031fe:	4b06      	ldr	r3, [pc, #24]	; (8003218 <prvTaskExitError+0x20>)
 8003200:	681b      	ldr	r3, [r3, #0]
 8003202:	3301      	adds	r3, #1
 8003204:	d001      	beq.n	800320a <prvTaskExitError+0x12>
 8003206:	b672      	cpsid	i
 8003208:	e7fe      	b.n	8003208 <prvTaskExitError+0x10>
 800320a:	b672      	cpsid	i
 800320c:	9b01      	ldr	r3, [sp, #4]
 800320e:	2b00      	cmp	r3, #0
 8003210:	d0fc      	beq.n	800320c <prvTaskExitError+0x14>
 8003212:	b002      	add	sp, #8
 8003214:	4770      	bx	lr
 8003216:	46c0      	nop			; (mov r8, r8)
 8003218:	20000004 	.word	0x20000004
 800321c:	00000000 	.word	0x00000000

08003220 <vPortStartFirstTask>:
 8003220:	4a0b      	ldr	r2, [pc, #44]	; (8003250 <pxCurrentTCBConst2>)
 8003222:	6813      	ldr	r3, [r2, #0]
 8003224:	6818      	ldr	r0, [r3, #0]
 8003226:	3020      	adds	r0, #32
 8003228:	f380 8809 	msr	PSP, r0
 800322c:	2002      	movs	r0, #2
 800322e:	f380 8814 	msr	CONTROL, r0
 8003232:	f3bf 8f6f 	isb	sy
 8003236:	bc3f      	pop	{r0, r1, r2, r3, r4, r5}
 8003238:	46ae      	mov	lr, r5
 800323a:	bc08      	pop	{r3}
 800323c:	bc04      	pop	{r2}
 800323e:	b662      	cpsie	i
 8003240:	4718      	bx	r3
 8003242:	46c0      	nop			; (mov r8, r8)
 8003244:	46c0      	nop			; (mov r8, r8)
 8003246:	46c0      	nop			; (mov r8, r8)
 8003248:	46c0      	nop			; (mov r8, r8)
 800324a:	46c0      	nop			; (mov r8, r8)
 800324c:	46c0      	nop			; (mov r8, r8)
 800324e:	46c0      	nop			; (mov r8, r8)

08003250 <pxCurrentTCBConst2>:
 8003250:	20000584 	.word	0x20000584

08003254 <pxPortInitialiseStack>:
 8003254:	b510      	push	{r4, lr}
 8003256:	2480      	movs	r4, #128	; 0x80
 8003258:	1f03      	subs	r3, r0, #4
 800325a:	0464      	lsls	r4, r4, #17
 800325c:	601c      	str	r4, [r3, #0]
 800325e:	3b04      	subs	r3, #4
 8003260:	6019      	str	r1, [r3, #0]
 8003262:	4903      	ldr	r1, [pc, #12]	; (8003270 <pxPortInitialiseStack+0x1c>)
 8003264:	3b04      	subs	r3, #4
 8003266:	6019      	str	r1, [r3, #0]
 8003268:	3b14      	subs	r3, #20
 800326a:	3840      	subs	r0, #64	; 0x40
 800326c:	601a      	str	r2, [r3, #0]
 800326e:	bd10      	pop	{r4, pc}
 8003270:	080031f9 	.word	0x080031f9

08003274 <SVC_Handler>:
 8003274:	4770      	bx	lr
	...

08003278 <xPortStartScheduler>:
 8003278:	22ff      	movs	r2, #255	; 0xff
 800327a:	4b12      	ldr	r3, [pc, #72]	; (80032c4 <xPortStartScheduler+0x4c>)
 800327c:	0412      	lsls	r2, r2, #16
 800327e:	6819      	ldr	r1, [r3, #0]
 8003280:	b570      	push	{r4, r5, r6, lr}
 8003282:	430a      	orrs	r2, r1
 8003284:	601a      	str	r2, [r3, #0]
 8003286:	22ff      	movs	r2, #255	; 0xff
 8003288:	6819      	ldr	r1, [r3, #0]
 800328a:	2400      	movs	r4, #0
 800328c:	0612      	lsls	r2, r2, #24
 800328e:	430a      	orrs	r2, r1
 8003290:	21fa      	movs	r1, #250	; 0xfa
 8003292:	601a      	str	r2, [r3, #0]
 8003294:	4d0c      	ldr	r5, [pc, #48]	; (80032c8 <xPortStartScheduler+0x50>)
 8003296:	4b0d      	ldr	r3, [pc, #52]	; (80032cc <xPortStartScheduler+0x54>)
 8003298:	602c      	str	r4, [r5, #0]
 800329a:	601c      	str	r4, [r3, #0]
 800329c:	4b0c      	ldr	r3, [pc, #48]	; (80032d0 <xPortStartScheduler+0x58>)
 800329e:	0089      	lsls	r1, r1, #2
 80032a0:	6818      	ldr	r0, [r3, #0]
 80032a2:	f7fc ff3b 	bl	800011c <__udivsi3>
 80032a6:	4b0b      	ldr	r3, [pc, #44]	; (80032d4 <xPortStartScheduler+0x5c>)
 80032a8:	3801      	subs	r0, #1
 80032aa:	6018      	str	r0, [r3, #0]
 80032ac:	2307      	movs	r3, #7
 80032ae:	602b      	str	r3, [r5, #0]
 80032b0:	4b09      	ldr	r3, [pc, #36]	; (80032d8 <xPortStartScheduler+0x60>)
 80032b2:	601c      	str	r4, [r3, #0]
 80032b4:	f7ff ffb4 	bl	8003220 <vPortStartFirstTask>
 80032b8:	f7ff ff68 	bl	800318c <vTaskSwitchContext>
 80032bc:	f7ff ff9c 	bl	80031f8 <prvTaskExitError>
 80032c0:	0020      	movs	r0, r4
 80032c2:	bd70      	pop	{r4, r5, r6, pc}
 80032c4:	e000ed20 	.word	0xe000ed20
 80032c8:	e000e010 	.word	0xe000e010
 80032cc:	e000e018 	.word	0xe000e018
 80032d0:	20000000 	.word	0x20000000
 80032d4:	e000e014 	.word	0xe000e014
 80032d8:	20000004 	.word	0x20000004

080032dc <vPortYield>:
 80032dc:	2280      	movs	r2, #128	; 0x80
 80032de:	4b04      	ldr	r3, [pc, #16]	; (80032f0 <vPortYield+0x14>)
 80032e0:	0552      	lsls	r2, r2, #21
 80032e2:	601a      	str	r2, [r3, #0]
 80032e4:	f3bf 8f4f 	dsb	sy
 80032e8:	f3bf 8f6f 	isb	sy
 80032ec:	4770      	bx	lr
 80032ee:	46c0      	nop			; (mov r8, r8)
 80032f0:	e000ed04 	.word	0xe000ed04

080032f4 <vPortEnterCritical>:
 80032f4:	b672      	cpsid	i
 80032f6:	4a04      	ldr	r2, [pc, #16]	; (8003308 <vPortEnterCritical+0x14>)
 80032f8:	6813      	ldr	r3, [r2, #0]
 80032fa:	3301      	adds	r3, #1
 80032fc:	6013      	str	r3, [r2, #0]
 80032fe:	f3bf 8f4f 	dsb	sy
 8003302:	f3bf 8f6f 	isb	sy
 8003306:	4770      	bx	lr
 8003308:	20000004 	.word	0x20000004

0800330c <vPortExitCritical>:
 800330c:	4a05      	ldr	r2, [pc, #20]	; (8003324 <vPortExitCritical+0x18>)
 800330e:	6813      	ldr	r3, [r2, #0]
 8003310:	2b00      	cmp	r3, #0
 8003312:	d101      	bne.n	8003318 <vPortExitCritical+0xc>
 8003314:	b672      	cpsid	i
 8003316:	e7fe      	b.n	8003316 <vPortExitCritical+0xa>
 8003318:	3b01      	subs	r3, #1
 800331a:	6013      	str	r3, [r2, #0]
 800331c:	2b00      	cmp	r3, #0
 800331e:	d100      	bne.n	8003322 <vPortExitCritical+0x16>
 8003320:	b662      	cpsie	i
 8003322:	4770      	bx	lr
 8003324:	20000004 	.word	0x20000004

08003328 <ulSetInterruptMaskFromISR>:
 8003328:	f3ef 8010 	mrs	r0, PRIMASK
 800332c:	b672      	cpsid	i
 800332e:	4770      	bx	lr

08003330 <vClearInterruptMaskFromISR>:
 8003330:	f380 8810 	msr	PRIMASK, r0
 8003334:	4770      	bx	lr
	...

08003340 <PendSV_Handler>:
 8003340:	f3ef 8009 	mrs	r0, PSP
 8003344:	4b0e      	ldr	r3, [pc, #56]	; (8003380 <pxCurrentTCBConst>)
 8003346:	681a      	ldr	r2, [r3, #0]
 8003348:	3820      	subs	r0, #32
 800334a:	6010      	str	r0, [r2, #0]
 800334c:	c0f0      	stmia	r0!, {r4, r5, r6, r7}
 800334e:	4644      	mov	r4, r8
 8003350:	464d      	mov	r5, r9
 8003352:	4656      	mov	r6, sl
 8003354:	465f      	mov	r7, fp
 8003356:	c0f0      	stmia	r0!, {r4, r5, r6, r7}
 8003358:	b508      	push	{r3, lr}
 800335a:	b672      	cpsid	i
 800335c:	f7ff ff16 	bl	800318c <vTaskSwitchContext>
 8003360:	b662      	cpsie	i
 8003362:	bc0c      	pop	{r2, r3}
 8003364:	6811      	ldr	r1, [r2, #0]
 8003366:	6808      	ldr	r0, [r1, #0]
 8003368:	3010      	adds	r0, #16
 800336a:	c8f0      	ldmia	r0!, {r4, r5, r6, r7}
 800336c:	46a0      	mov	r8, r4
 800336e:	46a9      	mov	r9, r5
 8003370:	46b2      	mov	sl, r6
 8003372:	46bb      	mov	fp, r7
 8003374:	f380 8809 	msr	PSP, r0
 8003378:	3820      	subs	r0, #32
 800337a:	c8f0      	ldmia	r0!, {r4, r5, r6, r7}
 800337c:	4718      	bx	r3
 800337e:	46c0      	nop			; (mov r8, r8)

08003380 <pxCurrentTCBConst>:
 8003380:	20000584 	.word	0x20000584

08003384 <SysTick_Handler>:
 8003384:	b510      	push	{r4, lr}
 8003386:	f7ff ffcf 	bl	8003328 <ulSetInterruptMaskFromISR>
 800338a:	0004      	movs	r4, r0
 800338c:	f7ff fdfe 	bl	8002f8c <xTaskIncrementTick>
 8003390:	2800      	cmp	r0, #0
 8003392:	d003      	beq.n	800339c <SysTick_Handler+0x18>
 8003394:	2280      	movs	r2, #128	; 0x80
 8003396:	4b03      	ldr	r3, [pc, #12]	; (80033a4 <SysTick_Handler+0x20>)
 8003398:	0552      	lsls	r2, r2, #21
 800339a:	601a      	str	r2, [r3, #0]
 800339c:	0020      	movs	r0, r4
 800339e:	f7ff ffc7 	bl	8003330 <vClearInterruptMaskFromISR>
 80033a2:	bd10      	pop	{r4, pc}
 80033a4:	e000ed04 	.word	0xe000ed04

080033a8 <prvInsertBlockIntoFreeList>:
 80033a8:	b510      	push	{r4, lr}
 80033aa:	4b0f      	ldr	r3, [pc, #60]	; (80033e8 <prvInsertBlockIntoFreeList+0x40>)
 80033ac:	681a      	ldr	r2, [r3, #0]
 80033ae:	4282      	cmp	r2, r0
 80033b0:	d318      	bcc.n	80033e4 <prvInsertBlockIntoFreeList+0x3c>
 80033b2:	685c      	ldr	r4, [r3, #4]
 80033b4:	1919      	adds	r1, r3, r4
 80033b6:	4288      	cmp	r0, r1
 80033b8:	d103      	bne.n	80033c2 <prvInsertBlockIntoFreeList+0x1a>
 80033ba:	6841      	ldr	r1, [r0, #4]
 80033bc:	0018      	movs	r0, r3
 80033be:	1909      	adds	r1, r1, r4
 80033c0:	6059      	str	r1, [r3, #4]
 80033c2:	6841      	ldr	r1, [r0, #4]
 80033c4:	1844      	adds	r4, r0, r1
 80033c6:	42a2      	cmp	r2, r4
 80033c8:	d107      	bne.n	80033da <prvInsertBlockIntoFreeList+0x32>
 80033ca:	4c08      	ldr	r4, [pc, #32]	; (80033ec <prvInsertBlockIntoFreeList+0x44>)
 80033cc:	6824      	ldr	r4, [r4, #0]
 80033ce:	42a2      	cmp	r2, r4
 80033d0:	d003      	beq.n	80033da <prvInsertBlockIntoFreeList+0x32>
 80033d2:	6854      	ldr	r4, [r2, #4]
 80033d4:	6812      	ldr	r2, [r2, #0]
 80033d6:	1861      	adds	r1, r4, r1
 80033d8:	6041      	str	r1, [r0, #4]
 80033da:	6002      	str	r2, [r0, #0]
 80033dc:	4298      	cmp	r0, r3
 80033de:	d000      	beq.n	80033e2 <prvInsertBlockIntoFreeList+0x3a>
 80033e0:	6018      	str	r0, [r3, #0]
 80033e2:	bd10      	pop	{r4, pc}
 80033e4:	0013      	movs	r3, r2
 80033e6:	e7e1      	b.n	80033ac <prvInsertBlockIntoFreeList+0x4>
 80033e8:	200012bc 	.word	0x200012bc
 80033ec:	200006ac 	.word	0x200006ac

080033f0 <pvPortMalloc>:
 80033f0:	b5f8      	push	{r3, r4, r5, r6, r7, lr}
 80033f2:	0004      	movs	r4, r0
 80033f4:	f7ff fdc2 	bl	8002f7c <vTaskSuspendAll>
 80033f8:	4a37      	ldr	r2, [pc, #220]	; (80034d8 <pvPortMalloc+0xe8>)
 80033fa:	4838      	ldr	r0, [pc, #224]	; (80034dc <pvPortMalloc+0xec>)
 80033fc:	6813      	ldr	r3, [r2, #0]
 80033fe:	2b00      	cmp	r3, #0
 8003400:	d11d      	bne.n	800343e <pvPortMalloc+0x4e>
 8003402:	23c0      	movs	r3, #192	; 0xc0
 8003404:	2507      	movs	r5, #7
 8003406:	4936      	ldr	r1, [pc, #216]	; (80034e0 <pvPortMalloc+0xf0>)
 8003408:	011b      	lsls	r3, r3, #4
 800340a:	18cb      	adds	r3, r1, r3
 800340c:	4229      	tst	r1, r5
 800340e:	d040      	beq.n	8003492 <pvPortMalloc+0xa2>
 8003410:	1949      	adds	r1, r1, r5
 8003412:	43a9      	bics	r1, r5
 8003414:	1a5b      	subs	r3, r3, r1
 8003416:	2500      	movs	r5, #0
 8003418:	4e32      	ldr	r6, [pc, #200]	; (80034e4 <pvPortMalloc+0xf4>)
 800341a:	18cb      	adds	r3, r1, r3
 800341c:	6075      	str	r5, [r6, #4]
 800341e:	6031      	str	r1, [r6, #0]
 8003420:	2607      	movs	r6, #7
 8003422:	3b08      	subs	r3, #8
 8003424:	43b3      	bics	r3, r6
 8003426:	601d      	str	r5, [r3, #0]
 8003428:	605d      	str	r5, [r3, #4]
 800342a:	1a5d      	subs	r5, r3, r1
 800342c:	6013      	str	r3, [r2, #0]
 800342e:	c128      	stmia	r1!, {r3, r5}
 8003430:	4b2d      	ldr	r3, [pc, #180]	; (80034e8 <pvPortMalloc+0xf8>)
 8003432:	601d      	str	r5, [r3, #0]
 8003434:	4b2d      	ldr	r3, [pc, #180]	; (80034ec <pvPortMalloc+0xfc>)
 8003436:	601d      	str	r5, [r3, #0]
 8003438:	2380      	movs	r3, #128	; 0x80
 800343a:	061b      	lsls	r3, r3, #24
 800343c:	6003      	str	r3, [r0, #0]
 800343e:	6806      	ldr	r6, [r0, #0]
 8003440:	4234      	tst	r4, r6
 8003442:	d145      	bne.n	80034d0 <pvPortMalloc+0xe0>
 8003444:	2c00      	cmp	r4, #0
 8003446:	d043      	beq.n	80034d0 <pvPortMalloc+0xe0>
 8003448:	0023      	movs	r3, r4
 800344a:	2107      	movs	r1, #7
 800344c:	3308      	adds	r3, #8
 800344e:	420b      	tst	r3, r1
 8003450:	d001      	beq.n	8003456 <pvPortMalloc+0x66>
 8003452:	438b      	bics	r3, r1
 8003454:	3308      	adds	r3, #8
 8003456:	2b00      	cmp	r3, #0
 8003458:	d03a      	beq.n	80034d0 <pvPortMalloc+0xe0>
 800345a:	4924      	ldr	r1, [pc, #144]	; (80034ec <pvPortMalloc+0xfc>)
 800345c:	680d      	ldr	r5, [r1, #0]
 800345e:	429d      	cmp	r5, r3
 8003460:	d336      	bcc.n	80034d0 <pvPortMalloc+0xe0>
 8003462:	4920      	ldr	r1, [pc, #128]	; (80034e4 <pvPortMalloc+0xf4>)
 8003464:	680c      	ldr	r4, [r1, #0]
 8003466:	6860      	ldr	r0, [r4, #4]
 8003468:	4298      	cmp	r0, r3
 800346a:	d203      	bcs.n	8003474 <pvPortMalloc+0x84>
 800346c:	6827      	ldr	r7, [r4, #0]
 800346e:	46bc      	mov	ip, r7
 8003470:	2f00      	cmp	r7, #0
 8003472:	d111      	bne.n	8003498 <pvPortMalloc+0xa8>
 8003474:	6812      	ldr	r2, [r2, #0]
 8003476:	42a2      	cmp	r2, r4
 8003478:	d02a      	beq.n	80034d0 <pvPortMalloc+0xe0>
 800347a:	680a      	ldr	r2, [r1, #0]
 800347c:	0017      	movs	r7, r2
 800347e:	6822      	ldr	r2, [r4, #0]
 8003480:	600a      	str	r2, [r1, #0]
 8003482:	1ac2      	subs	r2, r0, r3
 8003484:	2a10      	cmp	r2, #16
 8003486:	d90e      	bls.n	80034a6 <pvPortMalloc+0xb6>
 8003488:	18e0      	adds	r0, r4, r3
 800348a:	0741      	lsls	r1, r0, #29
 800348c:	d007      	beq.n	800349e <pvPortMalloc+0xae>
 800348e:	b672      	cpsid	i
 8003490:	e7fe      	b.n	8003490 <pvPortMalloc+0xa0>
 8003492:	23c0      	movs	r3, #192	; 0xc0
 8003494:	011b      	lsls	r3, r3, #4
 8003496:	e7be      	b.n	8003416 <pvPortMalloc+0x26>
 8003498:	0021      	movs	r1, r4
 800349a:	4664      	mov	r4, ip
 800349c:	e7e3      	b.n	8003466 <pvPortMalloc+0x76>
 800349e:	6042      	str	r2, [r0, #4]
 80034a0:	6063      	str	r3, [r4, #4]
 80034a2:	f7ff ff81 	bl	80033a8 <prvInsertBlockIntoFreeList>
 80034a6:	6863      	ldr	r3, [r4, #4]
 80034a8:	4a10      	ldr	r2, [pc, #64]	; (80034ec <pvPortMalloc+0xfc>)
 80034aa:	1aed      	subs	r5, r5, r3
 80034ac:	6015      	str	r5, [r2, #0]
 80034ae:	4a0e      	ldr	r2, [pc, #56]	; (80034e8 <pvPortMalloc+0xf8>)
 80034b0:	6811      	ldr	r1, [r2, #0]
 80034b2:	428d      	cmp	r5, r1
 80034b4:	d200      	bcs.n	80034b8 <pvPortMalloc+0xc8>
 80034b6:	6015      	str	r5, [r2, #0]
 80034b8:	431e      	orrs	r6, r3
 80034ba:	003d      	movs	r5, r7
 80034bc:	2300      	movs	r3, #0
 80034be:	3508      	adds	r5, #8
 80034c0:	6066      	str	r6, [r4, #4]
 80034c2:	6023      	str	r3, [r4, #0]
 80034c4:	f7ff fde0 	bl	8003088 <xTaskResumeAll>
 80034c8:	076b      	lsls	r3, r5, #29
 80034ca:	d003      	beq.n	80034d4 <pvPortMalloc+0xe4>
 80034cc:	b672      	cpsid	i
 80034ce:	e7fe      	b.n	80034ce <pvPortMalloc+0xde>
 80034d0:	2500      	movs	r5, #0
 80034d2:	e7f7      	b.n	80034c4 <pvPortMalloc+0xd4>
 80034d4:	0028      	movs	r0, r5
 80034d6:	bdf8      	pop	{r3, r4, r5, r6, r7, pc}
 80034d8:	200006ac 	.word	0x200006ac
 80034dc:	200012b0 	.word	0x200012b0
 80034e0:	200006b0 	.word	0x200006b0
 80034e4:	200012bc 	.word	0x200012bc
 80034e8:	200012b8 	.word	0x200012b8
 80034ec:	200012b4 	.word	0x200012b4

080034f0 <vPortFree>:
 80034f0:	b510      	push	{r4, lr}
 80034f2:	2800      	cmp	r0, #0
 80034f4:	d01b      	beq.n	800352e <vPortFree+0x3e>
 80034f6:	4a0e      	ldr	r2, [pc, #56]	; (8003530 <vPortFree+0x40>)
 80034f8:	3808      	subs	r0, #8
 80034fa:	6843      	ldr	r3, [r0, #4]
 80034fc:	6812      	ldr	r2, [r2, #0]
 80034fe:	0004      	movs	r4, r0
 8003500:	421a      	tst	r2, r3
 8003502:	d101      	bne.n	8003508 <vPortFree+0x18>
 8003504:	b672      	cpsid	i
 8003506:	e7fe      	b.n	8003506 <vPortFree+0x16>
 8003508:	6801      	ldr	r1, [r0, #0]
 800350a:	2900      	cmp	r1, #0
 800350c:	d001      	beq.n	8003512 <vPortFree+0x22>
 800350e:	b672      	cpsid	i
 8003510:	e7fe      	b.n	8003510 <vPortFree+0x20>
 8003512:	4393      	bics	r3, r2
 8003514:	6043      	str	r3, [r0, #4]
 8003516:	f7ff fd31 	bl	8002f7c <vTaskSuspendAll>
 800351a:	4a06      	ldr	r2, [pc, #24]	; (8003534 <vPortFree+0x44>)
 800351c:	6863      	ldr	r3, [r4, #4]
 800351e:	6811      	ldr	r1, [r2, #0]
 8003520:	0020      	movs	r0, r4
 8003522:	185b      	adds	r3, r3, r1
 8003524:	6013      	str	r3, [r2, #0]
 8003526:	f7ff ff3f 	bl	80033a8 <prvInsertBlockIntoFreeList>
 800352a:	f7ff fdad 	bl	8003088 <xTaskResumeAll>
 800352e:	bd10      	pop	{r4, pc}
 8003530:	200012b0 	.word	0x200012b0
 8003534:	200012b4 	.word	0x200012b4

08003538 <_ZdlPvj>:
 8003538:	b510      	push	{r4, lr}
 800353a:	f000 f801 	bl	8003540 <_ZdlPv>
 800353e:	bd10      	pop	{r4, pc}

08003540 <_ZdlPv>:
 8003540:	b510      	push	{r4, lr}
 8003542:	f000 f825 	bl	8003590 <free>
 8003546:	bd10      	pop	{r4, pc}

08003548 <__libc_init_array>:
 8003548:	b570      	push	{r4, r5, r6, lr}
 800354a:	2600      	movs	r6, #0
 800354c:	4d0c      	ldr	r5, [pc, #48]	; (8003580 <__libc_init_array+0x38>)
 800354e:	4c0d      	ldr	r4, [pc, #52]	; (8003584 <__libc_init_array+0x3c>)
 8003550:	1b64      	subs	r4, r4, r5
 8003552:	10a4      	asrs	r4, r4, #2
 8003554:	42a6      	cmp	r6, r4
 8003556:	d109      	bne.n	800356c <__libc_init_array+0x24>
 8003558:	2600      	movs	r6, #0
 800355a:	f000 f881 	bl	8003660 <_init>
 800355e:	4d0a      	ldr	r5, [pc, #40]	; (8003588 <__libc_init_array+0x40>)
 8003560:	4c0a      	ldr	r4, [pc, #40]	; (800358c <__libc_init_array+0x44>)
 8003562:	1b64      	subs	r4, r4, r5
 8003564:	10a4      	asrs	r4, r4, #2
 8003566:	42a6      	cmp	r6, r4
 8003568:	d105      	bne.n	8003576 <__libc_init_array+0x2e>
 800356a:	bd70      	pop	{r4, r5, r6, pc}
 800356c:	00b3      	lsls	r3, r6, #2
 800356e:	58eb      	ldr	r3, [r5, r3]
 8003570:	4798      	blx	r3
 8003572:	3601      	adds	r6, #1
 8003574:	e7ee      	b.n	8003554 <__libc_init_array+0xc>
 8003576:	00b3      	lsls	r3, r6, #2
 8003578:	58eb      	ldr	r3, [r5, r3]
 800357a:	4798      	blx	r3
 800357c:	3601      	adds	r6, #1
 800357e:	e7f2      	b.n	8003566 <__libc_init_array+0x1e>
 8003580:	08003774 	.word	0x08003774
 8003584:	08003774 	.word	0x08003774
 8003588:	08003774 	.word	0x08003774
 800358c:	0800377c 	.word	0x0800377c

08003590 <free>:
 8003590:	b510      	push	{r4, lr}
 8003592:	4b03      	ldr	r3, [pc, #12]	; (80035a0 <free+0x10>)
 8003594:	0001      	movs	r1, r0
 8003596:	6818      	ldr	r0, [r3, #0]
 8003598:	f000 f816 	bl	80035c8 <_free_r>
 800359c:	bd10      	pop	{r4, pc}
 800359e:	46c0      	nop			; (mov r8, r8)
 80035a0:	20000008 	.word	0x20000008

080035a4 <memcpy>:
 80035a4:	2300      	movs	r3, #0
 80035a6:	b510      	push	{r4, lr}
 80035a8:	429a      	cmp	r2, r3
 80035aa:	d100      	bne.n	80035ae <memcpy+0xa>
 80035ac:	bd10      	pop	{r4, pc}
 80035ae:	5ccc      	ldrb	r4, [r1, r3]
 80035b0:	54c4      	strb	r4, [r0, r3]
 80035b2:	3301      	adds	r3, #1
 80035b4:	e7f8      	b.n	80035a8 <memcpy+0x4>

080035b6 <memset>:
 80035b6:	0003      	movs	r3, r0
 80035b8:	1812      	adds	r2, r2, r0
 80035ba:	4293      	cmp	r3, r2
 80035bc:	d100      	bne.n	80035c0 <memset+0xa>
 80035be:	4770      	bx	lr
 80035c0:	7019      	strb	r1, [r3, #0]
 80035c2:	3301      	adds	r3, #1
 80035c4:	e7f9      	b.n	80035ba <memset+0x4>
	...

080035c8 <_free_r>:
 80035c8:	b570      	push	{r4, r5, r6, lr}
 80035ca:	0005      	movs	r5, r0
 80035cc:	2900      	cmp	r1, #0
 80035ce:	d010      	beq.n	80035f2 <_free_r+0x2a>
 80035d0:	1f0c      	subs	r4, r1, #4
 80035d2:	6823      	ldr	r3, [r4, #0]
 80035d4:	2b00      	cmp	r3, #0
 80035d6:	da00      	bge.n	80035da <_free_r+0x12>
 80035d8:	18e4      	adds	r4, r4, r3
 80035da:	0028      	movs	r0, r5
 80035dc:	f000 f83e 	bl	800365c <__malloc_lock>
 80035e0:	4a1d      	ldr	r2, [pc, #116]	; (8003658 <_free_r+0x90>)
 80035e2:	6813      	ldr	r3, [r2, #0]
 80035e4:	2b00      	cmp	r3, #0
 80035e6:	d105      	bne.n	80035f4 <_free_r+0x2c>
 80035e8:	6063      	str	r3, [r4, #4]
 80035ea:	6014      	str	r4, [r2, #0]
 80035ec:	0028      	movs	r0, r5
 80035ee:	f000 f836 	bl	800365e <__malloc_unlock>
 80035f2:	bd70      	pop	{r4, r5, r6, pc}
 80035f4:	42a3      	cmp	r3, r4
 80035f6:	d909      	bls.n	800360c <_free_r+0x44>
 80035f8:	6821      	ldr	r1, [r4, #0]
 80035fa:	1860      	adds	r0, r4, r1
 80035fc:	4283      	cmp	r3, r0
 80035fe:	d1f3      	bne.n	80035e8 <_free_r+0x20>
 8003600:	6818      	ldr	r0, [r3, #0]
 8003602:	685b      	ldr	r3, [r3, #4]
 8003604:	1841      	adds	r1, r0, r1
 8003606:	6021      	str	r1, [r4, #0]
 8003608:	e7ee      	b.n	80035e8 <_free_r+0x20>
 800360a:	0013      	movs	r3, r2
 800360c:	685a      	ldr	r2, [r3, #4]
 800360e:	2a00      	cmp	r2, #0
 8003610:	d001      	beq.n	8003616 <_free_r+0x4e>
 8003612:	42a2      	cmp	r2, r4
 8003614:	d9f9      	bls.n	800360a <_free_r+0x42>
 8003616:	6819      	ldr	r1, [r3, #0]
 8003618:	1858      	adds	r0, r3, r1
 800361a:	42a0      	cmp	r0, r4
 800361c:	d10b      	bne.n	8003636 <_free_r+0x6e>
 800361e:	6820      	ldr	r0, [r4, #0]
 8003620:	1809      	adds	r1, r1, r0
 8003622:	1858      	adds	r0, r3, r1
 8003624:	6019      	str	r1, [r3, #0]
 8003626:	4282      	cmp	r2, r0
 8003628:	d1e0      	bne.n	80035ec <_free_r+0x24>
 800362a:	6810      	ldr	r0, [r2, #0]
 800362c:	6852      	ldr	r2, [r2, #4]
 800362e:	1841      	adds	r1, r0, r1
 8003630:	6019      	str	r1, [r3, #0]
 8003632:	605a      	str	r2, [r3, #4]
 8003634:	e7da      	b.n	80035ec <_free_r+0x24>
 8003636:	42a0      	cmp	r0, r4
 8003638:	d902      	bls.n	8003640 <_free_r+0x78>
 800363a:	230c      	movs	r3, #12
 800363c:	602b      	str	r3, [r5, #0]
 800363e:	e7d5      	b.n	80035ec <_free_r+0x24>
 8003640:	6821      	ldr	r1, [r4, #0]
 8003642:	1860      	adds	r0, r4, r1
 8003644:	4282      	cmp	r2, r0
 8003646:	d103      	bne.n	8003650 <_free_r+0x88>
 8003648:	6810      	ldr	r0, [r2, #0]
 800364a:	6852      	ldr	r2, [r2, #4]
 800364c:	1841      	adds	r1, r0, r1
 800364e:	6021      	str	r1, [r4, #0]
 8003650:	6062      	str	r2, [r4, #4]
 8003652:	605c      	str	r4, [r3, #4]
 8003654:	e7ca      	b.n	80035ec <_free_r+0x24>
 8003656:	46c0      	nop			; (mov r8, r8)
 8003658:	200012c4 	.word	0x200012c4

0800365c <__malloc_lock>:
 800365c:	4770      	bx	lr

0800365e <__malloc_unlock>:
 800365e:	4770      	bx	lr

08003660 <_init>:
 8003660:	b5f8      	push	{r3, r4, r5, r6, r7, lr}
 8003662:	46c0      	nop			; (mov r8, r8)
 8003664:	bcf8      	pop	{r3, r4, r5, r6, r7}
 8003666:	bc08      	pop	{r3}
 8003668:	469e      	mov	lr, r3
 800366a:	4770      	bx	lr

0800366c <_fini>:
 800366c:	b5f8      	push	{r3, r4, r5, r6, r7, lr}
 800366e:	46c0      	nop			; (mov r8, r8)
 8003670:	bcf8      	pop	{r3, r4, r5, r6, r7}
 8003672:	bc08      	pop	{r3}
 8003674:	469e      	mov	lr, r3
 8003676:	4770      	bx	lr
